Microchip Technology Inc, v1.61 (B)

Tool Name:
  c:\program files\microchip\xc16\v1.61\bin\bin\..\bin/elf-ld.exe

Command:
  -p24FJ256GL406 \
  --mdfp=C:/Program Files/Microchip/MPLABX/v6.00/packs/Microchip/PIC24F-GL-GU_DFP/1.5.121/xc16 \
  -o \
  dist/default/production/Lib.X.production.elf \
  -Lc:/program files/microchip/xc16/v1.61/bin/bin/.. \
  -LC:/Program Files/Microchip/MPLABX/v6.00/packs/Microchip/PIC24F-GL-GU_DFP/1.5.121/xc16/bin/../support/PIC24F/gld \
  -Lc:/program files/microchip/xc16/v1.61/bin/bin/../../lib \
  -Lc:/program files/microchip/xc16/v1.61/bin/bin/../../support/PIC24E/gld \
  -Lc:/program files/microchip/xc16/v1.61/bin/bin/../../support/PIC24F/gld \
  -Lc:/program files/microchip/xc16/v1.61/bin/bin/../../support/PIC24H/gld \
  -Lc:/program files/microchip/xc16/v1.61/bin/bin/../../support/dsPIC30F/gld \
  -Lc:/program files/microchip/xc16/v1.61/bin/bin/../../support/dsPIC33C/gld \
  -Lc:/program files/microchip/xc16/v1.61/bin/bin/../../support/dsPIC33E/gld \
  -Lc:/program files/microchip/xc16/v1.61/bin/bin/../../support/dsPIC33F/gld \
  build/default/production/hal/hal_uart.o \
  build/default/production/hal/interrupts.o \
  build/default/production/lib/io.o \
  build/default/production/lib/wimbus.o \
  build/default/production/lib/wimuart.o \
  build/default/production/lib/async_uart.o \
  build/default/production/lib/driver_init.o \
  build/default/production/lib/ringbuffer.o \
  build/default/production/main.o \
  build/default/production/system.o \
  build/default/production/board.o \
  --local-stack \
  --defsym=__MPLAB_BUILD=1 \
  -Tp24FJ256GL406.gld.00 \
  --stack=16 \
  --check-sections \
  --data-init \
  --pack-data \
  --handles \
  --isr \
  --no-gc-sections \
  --fill-upper=0 \
  --stackguard=16 \
  --no-force-link \
  --smart-io \
  -Map=dist/default/production/Lib.X.production.map \
  --report-mem \
  --memorysummary \
  dist/default/production/memoryfile.xml \
  -start-group \
  --library=lega-pic30-elf \
  --library=m-elf \
  --library=lega-c-elf \
  -end-group \


Optional library libpPIC24Fxxx.a not found
Archive member included because of file (symbol)

c:/program files/microchip/xc16/v1.61/bin/bin/../../lib\liblega-pic30-elf.a(crt0_extended24.o)
                              (__resetPRI)
c:/program files/microchip/xc16/v1.61/bin/bin/../../lib\liblega-pic30-elf.a(data_init_24.o)
                              c:/program files/microchip/xc16/v1.61/bin/bin/../../lib\liblega-pic30-elf.a(crt0_extended24.o) (__data_init_da)
c:/program files/microchip/xc16/v1.61/bin/bin/../../lib\liblega-pic30-elf.a(crt_start_mode_normalda.Leo)
                              (__crt_start_mode_normal)
c:/program files/microchip/xc16/v1.61/bin/bin/../../lib\liblega-pic30-elf.a(delay32da.Leo)
                              build/default/production/board.o (___delay32)
c:/program files/microchip/xc16/v1.61/bin/bin/../../lib\libm-elf.a(udivsi3.daeo)
                              build/default/production/lib/wimuart.o (___udivsi3)
c:/program files/microchip/xc16/v1.61/bin/bin/../../lib\liblega-c-elf.a(strlen.DA_eo)
                              build/default/production/board.o (_strlen)
c:/program files/microchip/xc16/v1.61/bin/bin/../../lib\liblega-c-elf.a(sprintf_cdnopsuxX.DAeo)
                              build/default/production/board.o (__sprintf_cdnopsuxX)
c:/program files/microchip/xc16/v1.61/bin/bin/../../lib\liblega-c-elf.a(xprintf_cdnopsuxX.DAeo)
                              c:/program files/microchip/xc16/v1.61/bin/bin/../../lib\liblega-c-elf.a(sprintf_cdnopsuxX.DAeo) (___ePrintf_cdnopsuxX)
c:/program files/microchip/xc16/v1.61/bin/bin/../../lib\liblega-c-elf.a(xputfld_cdnopsuxX.DAeo)
                              c:/program files/microchip/xc16/v1.61/bin/bin/../../lib\liblega-c-elf.a(xprintf_cdnopsuxX.DAeo) (___Putfld_cdnopsuxX)
c:/program files/microchip/xc16/v1.61/bin/bin/../../lib\liblega-c-elf.a(memchr.DA_eo)
                              c:/program files/microchip/xc16/v1.61/bin/bin/../../lib\liblega-c-elf.a(xputfld_cdnopsuxX.DAeo) (_memchr)
c:/program files/microchip/xc16/v1.61/bin/bin/../../lib\liblega-c-elf.a(memcpy.DA_eo)
                              c:/program files/microchip/xc16/v1.61/bin/bin/../../lib\liblega-c-elf.a(sprintf_cdnopsuxX.DAeo) (_memcpy)
c:/program files/microchip/xc16/v1.61/bin/bin/../../lib\liblega-c-elf.a(strchr.DA_eo)
                              c:/program files/microchip/xc16/v1.61/bin/bin/../../lib\liblega-c-elf.a(xprintf_cdnopsuxX.DAeo) (_strchr)
c:/program files/microchip/xc16/v1.61/bin/bin/../../lib\liblega-c-elf.a(xlitob.DA_eo)
                              c:/program files/microchip/xc16/v1.61/bin/bin/../../lib\liblega-c-elf.a(xputfld_cdnopsuxX.DAeo) (__Litob)
c:/program files/microchip/xc16/v1.61/bin/bin/../../lib\liblega-c-elf.a(xputtxt.DA_eo)
                              c:/program files/microchip/xc16/v1.61/bin/bin/../../lib\liblega-c-elf.a(xprintf_cdnopsuxX.DAeo) (__Puttxt)
c:/program files/microchip/xc16/v1.61/bin/bin/../../lib\liblega-c-elf.a(xvacopy.DA_eo)
                              c:/program files/microchip/xc16/v1.61/bin/bin/../../lib\liblega-c-elf.a(xprintf_cdnopsuxX.DAeo) (__Vacopy)
c:/program files/microchip/xc16/v1.61/bin/bin/../../lib\liblega-c-elf.a(efwrite.DA_eo)
                              c:/program files/microchip/xc16/v1.61/bin/bin/../../lib\liblega-c-elf.a(xprintf_cdnopsuxX.DAeo) (_efwrite)
c:/program files/microchip/xc16/v1.61/bin/bin/../../lib\liblega-c-elf.a(fflush.DA_elo)
                              c:/program files/microchip/xc16/v1.61/bin/bin/../../lib\liblega-c-elf.a(efwrite.DA_eo) (__DNKfflush)
c:/program files/microchip/xc16/v1.61/bin/bin/../../lib\liblega-c-elf.a(xfiles.DA_elo)
                              c:/program files/microchip/xc16/v1.61/bin/bin/../../lib\liblega-c-elf.a(fflush.DA_elo) (__Files)
c:/program files/microchip/xc16/v1.61/bin/bin/../../lib\liblega-c-elf.a(xfwprep.DA_eo)
                              c:/program files/microchip/xc16/v1.61/bin/bin/../../lib\liblega-c-elf.a(efwrite.DA_eo) (__Fwprep)
c:/program files/microchip/xc16/v1.61/bin/bin/../../lib\liblega-c-elf.a(fclose.DA_elo)
                              c:/program files/microchip/xc16/v1.61/bin/bin/../../lib\liblega-c-elf.a(xfwprep.DA_eo) (__Closreg)
c:/program files/microchip/xc16/v1.61/bin/bin/../../lib\liblega-c-elf.a(xatexit.DA_elo)
                              c:/program files/microchip/xc16/v1.61/bin/bin/../../lib\liblega-c-elf.a(fclose.DA_elo) (__Atexit)
c:/program files/microchip/xc16/v1.61/bin/bin/../../lib\liblega-c-elf.a(free.DA_eo)
                              c:/program files/microchip/xc16/v1.61/bin/bin/../../lib\liblega-c-elf.a(fclose.DA_elo) (_free)
c:/program files/microchip/xc16/v1.61/bin/bin/../../lib\liblega-c-elf.a(malloc.DA_eo)
                              c:/program files/microchip/xc16/v1.61/bin/bin/../../lib\liblega-c-elf.a(free.DA_eo) (__Aldata)
c:/program files/microchip/xc16/v1.61/bin/bin/../../lib\liblega-c-elf.a(xgetmem.DA_eo)
                              c:/program files/microchip/xc16/v1.61/bin/bin/../../lib\liblega-c-elf.a(malloc.DA_eo) (__Getmem)
c:/program files/microchip/xc16/v1.61/bin/bin/../../lib\liblega-pic30-elf.a(closeda.Leo)
                              c:/program files/microchip/xc16/v1.61/bin/bin/../../lib\liblega-c-elf.a(fclose.DA_elo) (_close)
c:/program files/microchip/xc16/v1.61/bin/bin/../../lib\liblega-pic30-elf.a(writeda.Leo)
                              c:/program files/microchip/xc16/v1.61/bin/bin/../../lib\liblega-c-elf.a(fflush.DA_elo) (_write)
c:/program files/microchip/xc16/v1.61/bin/bin/../../lib\liblega-pic30-elf.a(removeda.Leo)
                              c:/program files/microchip/xc16/v1.61/bin/bin/../../lib\liblega-c-elf.a(fclose.DA_elo) (_remove)
c:/program files/microchip/xc16/v1.61/bin/bin/../../lib\liblega-pic30-elf.a(sbrkda.Leo)
                              c:/program files/microchip/xc16/v1.61/bin/bin/../../lib\liblega-c-elf.a(xgetmem.DA_eo) (_sbrk)
c:/program files/microchip/xc16/v1.61/bin/bin/../../lib\liblega-pic30-elf.a(c30_uartda.Leo)
                              c:/program files/microchip/xc16/v1.61/bin/bin/../../lib\liblega-pic30-elf.a(writeda.Leo) (___C30_UART)
c:/program files/microchip/xc16/v1.61/bin/bin/../../lib\liblega-pic30-elf.a(memcpy_edsda.Leo)
                              c:/program files/microchip/xc16/v1.61/bin/bin/../../lib\liblega-c-elf.a(sprintf_cdnopsuxX.DAeo) (__memcpy_eds_3)
c:/program files/microchip/xc16/v1.61/bin/bin/../../lib\liblega-pic30-elf.a(memchr_edsda.Leo)
                              c:/program files/microchip/xc16/v1.61/bin/bin/../../lib\liblega-c-elf.a(xputfld_cdnopsuxX.DAeo) (__memchr_eds)
c:/program files/microchip/xc16/v1.61/bin/bin/../../lib\liblega-pic30-elf.a(brkda.Lelo)
                              c:/program files/microchip/xc16/v1.61/bin/bin/../../lib\liblega-pic30-elf.a(sbrkda.Leo) (_brk)
c:/program files/microchip/xc16/v1.61/bin/bin/../../lib\libm-elf.a(divsi3.daeo)
                              c:/program files/microchip/xc16/v1.61/bin/bin/../../lib\liblega-c-elf.a(xlitob.DA_eo) (___divsi3)
c:/program files/microchip/xc16/v1.61/bin/bin/../../lib\libm-elf.a(umodsi3.daeo)
                              c:/program files/microchip/xc16/v1.61/bin/bin/../../lib\liblega-c-elf.a(xlitob.DA_eo) (___umodsi3)
c:/program files/microchip/xc16/v1.61/bin/bin/../../lib\libm-elf.a(mulsi3.daeo)
                              c:/program files/microchip/xc16/v1.61/bin/bin/../../lib\liblega-c-elf.a(fclose.DA_elo) (___mulsi3)
c:/program files/microchip/xc16/v1.61/bin/bin/../../lib\libm-elf.a(divmoddi3.daeo)
                              c:/program files/microchip/xc16/v1.61/bin/bin/../../lib\liblega-c-elf.a(xlitob.DA_eo) (___udivdi3)


Selected CodeGuard Options:
  FSEC:BWRP:ON
  FSEC:BSS:DISABLED
  FSEC:BSEN:OFF
  FSEC:GWRP:OFF
  FSEC:GSS:DISABLED
  FSEC:CWRP:OFF
  FSEC:CSS:DISABLED
  FSEC:AIVTDIS:OFF

CodeGuard FLASH Memory:
  boot    (none)
  secure  (none)
  general 0x100 to 0x2aefe

CodeGuard RAM Memory:
  general 0x800 to 0x87ff
  secure  (none)
  boot    (none)


xc16-ld 1.61 (B)

Default Code Model: Small
Default Data Model: Large
Default Scalar Model: Small

"program" Memory  [Origin = 0x100, Length = 0x2ae00]

section                    address   length (PC units)   length (bytes) (dec)
-------                    -------   -----------------   --------------------
.text                        0x100              0x12c2          0x1c23  (7203)
.const                      0x13c2               0x236           0x351  (849)
.text                       0x15f8               0x704           0xa86  (2694)
.dinit                      0x1cfc               0x100           0x180  (384)
.text                       0x1dfc               0x2bc           0x41a  (1050)
.init.delay32               0x20b8                0x1c            0x2a  (42)
.text                       0x20d4                0x18            0x24  (36)

                 Total "program" memory used (bytes):         0x2fe2  (12258) 4%


"data" Memory  [Origin = 0x800, Length = 0x8000]

section                    address      alignment gaps    total length  (dec)
-------                    -------      --------------    -------------------
.bss                         0x800                   0           0x184  (388)
.data                        0x984                   0           0x106  (262)
.bss                         0xa8a                   0            0x10  (16)
.data                        0xa9a                   0             0x4  (4)
.bss                         0xa9e                   0             0x2  (2)

                 Total "data" memory used (bytes):          0x2a0  (672) 2%


Dynamic Memory Usage

region                     address                      maximum length  (dec)
------                     -------                      ---------------------
heap                             0                                   0  (0)
stack                        0xaa0                              0x7560  (30048)

                 Maximum dynamic memory (bytes):         0x7560  (30048)

Info: Project is using a large data memory model when small data memory model is sufficient.


External Symbols in Data Memory (by address):

                    0x0800                  _uart2Buffer
                    0x08fa                  _async_uart1
                    0x0928                  _async_uart2
                    0x0956                  _async_uart3
                    0x0984                  __Stdin
                    0x09ac                  __Stdout
                    0x09d4                  __Stderr
                    0x09fc                  __Files
                    0x0a90                  _gBoardGlobal
                    0x0a94                  __Aldata
                    0x0a9a                  __Size_block
                    0x0a9c                  ___C30_UART
                    0x0a9e                  ___curbrk

External Symbols in Data Memory (by name):

                    0x0a94                  __Aldata
                    0x09fc                  __Files
                    0x0a9a                  __Size_block
                    0x09d4                  __Stderr
                    0x0984                  __Stdin
                    0x09ac                  __Stdout
                    0x0a9c                  ___C30_UART
                    0x0a9e                  ___curbrk
                    0x08fa                  _async_uart1
                    0x0928                  _async_uart2
                    0x0956                  _async_uart3
                    0x0a90                  _gBoardGlobal
                    0x0800                  _uart2Buffer

External Symbols in Program Memory (by address):

                  0x000100                  __resetPRI
                  0x00013c                  __psv_init
                  0x000152                  __data_init
                  0x000152                  __data_init_da
                  0x000250                  __U1TXInterrupt
                  0x00027c                  __U1RXInterrupt
                  0x000298                  __U2TXInterrupt
                  0x0002c4                  __U2RXInterrupt
                  0x0002e0                  __U3TXInterrupt
                  0x00030c                  __U3RXInterrupt
                  0x000328                  __DefaultInterrupt
                  0x000418                  ___udivsi3
                  0x000438                  _strlen
                  0x000444                  sprintf_cdnopsuxX.DAeo:_eprout
                  0x00045e                  sprintf_cdnopsuxX.DAeo:_prout
                  0x00046c                  __sprintf_cdnopsuxX
                  0x00048c                  xprintf_cdnopsuxX.DAeo:_eprout
                  0x0004aa                  ___ePrintf_cdnopsuxX
                  0x000620                  ___Printf_cdnopsuxX
                  0x00062a                  ___Putfld_cdnopsuxX
                  0x0008be                  _memchr
                  0x0008d2                  _memcpy
                  0x0008e0                  _strchr
                  0x0008f8                  __Litob
                  0x000b56                  __Puttxt
                  0x000d0a                  __Vacopy
                  0x000d0e                  _efwrite
                  0x000de6                  __DNKfflush
                  0x000e5c                  __Fwprep
                  0x000eee                  __Closreg
                  0x000f00                  _fclose
                  0x000f90                  fclose.DA_elo:_closeall
                  0x000fb0                  __Atexit
                  0x000fc8                  _free
                  0x001092                  _malloc
                  0x0010e6                  __Getmem
                  0x001106                  __memcpy_eds_3
                  0x001106                  __memcpy_eds
                  0x001158                  __memchr_eds
                  0x00118e                  ___divsi3
                  0x0011ac                  ___umodsi3
                  0x0011b2                  ___mulp32eds3
                  0x0011b2                  ___mulp32peds3
                  0x0011b2                  ___mulsi3
                  0x00120a                  ___udivmoddi3
                  0x0012f0                  ___udivdi3
                  0x0012fe                  ___umoddi3
                  0x001306                  ___divdi3
                  0x001366                  ___moddi3
                  0x0015f8                  build/default/production/lib/async_uart.o:_async_tx_sent_done
                  0x00160a                  build/default/production/lib/async_uart.o:_async_uart_error
                  0x00160c                  _async_uart_read
                  0x00165e                  _async_uart_write
                  0x0016bc                  build/default/production/lib/async_uart.o:_async_rx_filling_done
                  0x0016d4                  build/default/production/lib/async_uart.o:_async_tx_byte_sent
                  0x00171e                  _async_uart_initialization
                  0x001750                  _get_async_uart_serial_descriptor
                  0x001776                  _async_uart_set_parity
                  0x0017a0                  _async_uart_set_stop_bits
                  0x0017ca                  _async_uart_enable
                  0x0017f0                  _async_uart_set_clock_speed
                  0x00181a                  _usart_async_register_callback
                  0x001862                  _async_uart_buffer_flush
                  0x001888                  build/default/production/lib/wimuart.o:_TxCompleteCb
                  0x0018b6                  build/default/production/lib/wimuart.o:_RxCompleteCb
                  0x0018e4                  _UARTByteAvailable
                  0x0018ec                  _UARTMasterRead
                  0x001934                  _UARTMasterWrite
                  0x00196e                  _UARTClockRateSet
                  0x001998                  _WIMSerialUARTCreate
                  0x001ad4                  __async_uart_init
                  0x001b74                  __async_uart_set_parity
                  0x001b7a                  __async_uart_set_stop_bits
                  0x001b80                  __async_uart_set_clock_speed
                  0x001b86                  __async_uart_enable
                  0x001b92                  __async_uart_write_data
                  0x001b9a                  __async_uart_wait_byte_sent_status_clear
                  0x001ba4                  __async_uart_TX_interrupt_enable
                  0x001bb0                  __async_uart_TX_interrupt_disable
                  0x001bbc                  __async_uart_TX_interrupt_flag_clear
                  0x001bc8                  __async_uart_RX_interrupt_enable
                  0x001bd4                  __async_uart_RX_interrupt_disable
                  0x001be0                  __async_uart_RX_interrupt_flag_clear
                  0x001bec                  _ringbuffer_init
                  0x001c24                  _ringbuffer_get
                  0x001c5e                  _ringbuffer_put
                  0x001ca4                  _ringbuffer_num
                  0x001cca                  _ringbuffer_flush
                  0x001dfc                  __Assert
                  0x001dfe                  _board_system_initialization
                  0x001e02                  _board_initialization
                  0x001e46                  _board_application
                  0x001eda                  _WIMBusMasterWrite
                  0x001ef2                  _WIMBusMasterRead
                  0x001f0a                  _WIMBusByteAvailable
                  0x001f22                  _WIMBusClockSet
                  0x001f3e                  _WIMBusReadTimeoutSet
                  0x001f58                  _WIMBusReadTimeoutGet
                  0x001f70                  _WMBusReadTimeoutSet
                  0x001f76                  _WMBusReadTimeoutGet
                  0x001f7e                  _SetUARTRXIE
                  0x001fa6                  _SetUARTRXIF
                  0x001fce                  _SetUARTTXIE
                  0x001ff6                  _SetUARTTXIF
                  0x00201e                  _io_write
                  0x002052                  _io_read
                  0x002086                  _WMB_ClockInitialization
                  0x0020b8                  ___delay32
                  0x0020d4                  _UART1_Initialization
                  0x0020e2                  _main
                  0x02af00                  __FSEC.sec

External Symbols in Program Memory (by name):

                  0x001f7e                  _SetUARTRXIE
                  0x001fa6                  _SetUARTRXIF
                  0x001fce                  _SetUARTTXIE
                  0x001ff6                  _SetUARTTXIF
                  0x0020d4                  _UART1_Initialization
                  0x0018e4                  _UARTByteAvailable
                  0x00196e                  _UARTClockRateSet
                  0x0018ec                  _UARTMasterRead
                  0x001934                  _UARTMasterWrite
                  0x001f0a                  _WIMBusByteAvailable
                  0x001f22                  _WIMBusClockSet
                  0x001ef2                  _WIMBusMasterRead
                  0x001eda                  _WIMBusMasterWrite
                  0x001f58                  _WIMBusReadTimeoutGet
                  0x001f3e                  _WIMBusReadTimeoutSet
                  0x001998                  _WIMSerialUARTCreate
                  0x002086                  _WMB_ClockInitialization
                  0x001f76                  _WMBusReadTimeoutGet
                  0x001f70                  _WMBusReadTimeoutSet
                  0x001dfc                  __Assert
                  0x000fb0                  __Atexit
                  0x000eee                  __Closreg
                  0x000de6                  __DNKfflush
                  0x000328                  __DefaultInterrupt
                  0x02af00                  __FSEC.sec
                  0x000e5c                  __Fwprep
                  0x0010e6                  __Getmem
                  0x0008f8                  __Litob
                  0x000b56                  __Puttxt
                  0x00027c                  __U1RXInterrupt
                  0x000250                  __U1TXInterrupt
                  0x0002c4                  __U2RXInterrupt
                  0x000298                  __U2TXInterrupt
                  0x00030c                  __U3RXInterrupt
                  0x0002e0                  __U3TXInterrupt
                  0x000d0a                  __Vacopy
                  0x000620                  ___Printf_cdnopsuxX
                  0x00062a                  ___Putfld_cdnopsuxX
                  0x0020b8                  ___delay32
                  0x001306                  ___divdi3
                  0x00118e                  ___divsi3
                  0x0004aa                  ___ePrintf_cdnopsuxX
                  0x001366                  ___moddi3
                  0x0011b2                  ___mulp32eds3
                  0x0011b2                  ___mulp32peds3
                  0x0011b2                  ___mulsi3
                  0x0012f0                  ___udivdi3
                  0x00120a                  ___udivmoddi3
                  0x000418                  ___udivsi3
                  0x0012fe                  ___umoddi3
                  0x0011ac                  ___umodsi3
                  0x001bd4                  __async_uart_RX_interrupt_disable
                  0x001bc8                  __async_uart_RX_interrupt_enable
                  0x001be0                  __async_uart_RX_interrupt_flag_clear
                  0x001bb0                  __async_uart_TX_interrupt_disable
                  0x001ba4                  __async_uart_TX_interrupt_enable
                  0x001bbc                  __async_uart_TX_interrupt_flag_clear
                  0x001b86                  __async_uart_enable
                  0x001ad4                  __async_uart_init
                  0x001b80                  __async_uart_set_clock_speed
                  0x001b74                  __async_uart_set_parity
                  0x001b7a                  __async_uart_set_stop_bits
                  0x001b9a                  __async_uart_wait_byte_sent_status_clear
                  0x001b92                  __async_uart_write_data
                  0x000152                  __data_init
                  0x000152                  __data_init_da
                  0x001158                  __memchr_eds
                  0x001106                  __memcpy_eds
                  0x001106                  __memcpy_eds_3
                  0x00013c                  __psv_init
                  0x000100                  __resetPRI
                  0x00046c                  __sprintf_cdnopsuxX
                  0x001862                  _async_uart_buffer_flush
                  0x0017ca                  _async_uart_enable
                  0x00171e                  _async_uart_initialization
                  0x00160c                  _async_uart_read
                  0x0017f0                  _async_uart_set_clock_speed
                  0x001776                  _async_uart_set_parity
                  0x0017a0                  _async_uart_set_stop_bits
                  0x00165e                  _async_uart_write
                  0x001e46                  _board_application
                  0x001e02                  _board_initialization
                  0x001dfe                  _board_system_initialization
                  0x000d0e                  _efwrite
                  0x000f00                  _fclose
                  0x000fc8                  _free
                  0x001750                  _get_async_uart_serial_descriptor
                  0x002052                  _io_read
                  0x00201e                  _io_write
                  0x0020e2                  _main
                  0x001092                  _malloc
                  0x0008be                  _memchr
                  0x0008d2                  _memcpy
                  0x001cca                  _ringbuffer_flush
                  0x001c24                  _ringbuffer_get
                  0x001bec                  _ringbuffer_init
                  0x001ca4                  _ringbuffer_num
                  0x001c5e                  _ringbuffer_put
                  0x0008e0                  _strchr
                  0x000438                  _strlen
                  0x00181a                  _usart_async_register_callback
                  0x0016bc                  build/default/production/lib/async_uart.o:_async_rx_filling_done
                  0x0016d4                  build/default/production/lib/async_uart.o:_async_tx_byte_sent
                  0x0015f8                  build/default/production/lib/async_uart.o:_async_tx_sent_done
                  0x00160a                  build/default/production/lib/async_uart.o:_async_uart_error
                  0x0018b6                  build/default/production/lib/wimuart.o:_RxCompleteCb
                  0x001888                  build/default/production/lib/wimuart.o:_TxCompleteCb
                  0x000f90                  fclose.DA_elo:_closeall
                  0x000444                  sprintf_cdnopsuxX.DAeo:_eprout
                  0x00045e                  sprintf_cdnopsuxX.DAeo:_prout
                  0x00048c                  xprintf_cdnopsuxX.DAeo:_eprout

Memory Configuration

Name             Origin             Length             Attributes
data             0x000800           0x008000           a !xr
FBOOT            0x801800           0x000002  
reset            0x000000           0x000004  
ivt              0x000004           0x0000fc  
program          0x000100           0x02ae00           xr
FSEC             0x02af00           0x000002  
FBSLIM           0x02af10           0x000002  
FSIGN            0x02af14           0x000002  
FOSCSEL          0x02af18           0x000002  
FOSC             0x02af1c           0x000002  
FWDT             0x02af20           0x000002  
FPOR             0x02af24           0x000002  
FICD             0x02af28           0x000002  
FDMTIVTL         0x02af2c           0x000002  
FDMTIVTH         0x02af30           0x000002  
FDMTCNTL         0x02af34           0x000002  
FDMTCNTH         0x02af38           0x000002  
FDMT             0x02af3c           0x000002  
FDEVOPT1         0x02af40           0x000002  
*default*        0x000000           0xffffffff  

Linker script and memory map

LOAD build/default/production/hal/hal_uart.o
LOAD build/default/production/hal/interrupts.o
LOAD build/default/production/lib/io.o
LOAD build/default/production/lib/wimbus.o
LOAD build/default/production/lib/wimuart.o
LOAD build/default/production/lib/async_uart.o
LOAD build/default/production/lib/driver_init.o
LOAD build/default/production/lib/ringbuffer.o
LOAD build/default/production/main.o
LOAD build/default/production/system.o
LOAD build/default/production/board.o
                    0x0001                  __MPLAB_BUILD = 0x1
LOAD pPIC24Fxxx
LOAD c:/program files/microchip/xc16/v1.61/bin/bin/../../lib\libfx-elf.a
                    0x801024                  _iwri1 = 0x801024
                    0x801028                  _iwri2 = 0x801028
                    0x801800                  __FBOOT = 0x801800
                    0x2af00                  __FSEC = 0x2af00
                    0x2af10                  __FBSLIM = 0x2af10
                    0x2af14                  __FSIGN = 0x2af14
                    0x2af18                  __FOSCSEL = 0x2af18
                    0x2af1c                  __FOSC = 0x2af1c
                    0x2af20                  __FWDT = 0x2af20
                    0x2af24                  __FPOR = 0x2af24
                    0x2af28                  __FICD = 0x2af28
                    0x2af2c                  __FDMTIVTL = 0x2af2c
                    0x2af30                  __FDMTIVTH = 0x2af30
                    0x2af34                  __FDMTCNTL = 0x2af34
                    0x2af38                  __FDMTCNTH = 0x2af38
                    0x2af3c                  __FDMT = 0x2af3c
                    0x2af40                  __FDEVOPT1 = 0x2af40
                    0x0100                  __CODE_BASE = 0x100
                    0x2ae00                  __CODE_LENGTH = 0x2ae00
                    0x0004                  __IVT_BASE = 0x4
                    0x0800                  __DATA_BASE = 0x800
                    0x8000                  __DATA_LENGTH = 0x8000

.reset            0x000000          0x4
                  0x000000          0x2 SHORT 0x100 ABSOLUTE (__reset)
                  0x000001          0x2 SHORT 0x4
                  0x000002          0x2 SHORT 0x0 ((ABSOLUTE (__reset) >> 0x10) & 0x7f)
                  0x000003          0x2 SHORT 0x0

.text             0x000100       0x12c2
 *(.init)
 .init            0x000100         0x4c c:/program files/microchip/xc16/v1.61/bin/bin/../../lib\liblega-pic30-elf.a(crt0_extended24.o)
                  0x000100                  __resetPRI
                  0x000100                  __reset
                  0x00013c                  __psv_init
 .init            0x00014c         0xb8 c:/program files/microchip/xc16/v1.61/bin/bin/../../lib\liblega-pic30-elf.a(data_init_24.o)
                  0x000152                  __data_init
                  0x000152                  __data_init_da
 *(.user_init)
 *(.handle)
 .handle          0x000204         0x4c jump_table
 *(.isr*)
 .isr.text        0x000250         0xd8 build/default/production/hal/hal_uart.o
                  0x000250                  __U1TXInterrupt
                  0x00027c                  __U1RXInterrupt
                  0x000298                  __U2TXInterrupt
                  0x0002c4                  __U2RXInterrupt
                  0x0002e0                  __U3TXInterrupt
                  0x00030c                  __U3RXInterrupt
 .isr             0x000328          0x4 default_isr
                  0x000328                  __DefaultInterrupt
 *(.libc)
 .libc            0x00032c         0x12 c:/program files/microchip/xc16/v1.61/bin/bin/../../lib\liblega-pic30-elf.a(closeda.Leo)
                  0x00032c                  _close
 .libc            0x00033e         0x84 c:/program files/microchip/xc16/v1.61/bin/bin/../../lib\liblega-pic30-elf.a(writeda.Leo)
                  0x00033e                  _write
 .libc            0x0003c2         0x12 c:/program files/microchip/xc16/v1.61/bin/bin/../../lib\liblega-pic30-elf.a(removeda.Leo)
                  0x0003c2                  _remove
 .libc            0x0003d4         0x28 c:/program files/microchip/xc16/v1.61/bin/bin/../../lib\liblega-pic30-elf.a(sbrkda.Leo)
                  0x0003d4                  _sbrk
 .libc            0x0003fc         0x1a c:/program files/microchip/xc16/v1.61/bin/bin/../../lib\liblega-pic30-elf.a(brkda.Lelo)
                  0x0003fc                  _brk
 *(.libm)
 *(.libdsp)
 *(.lib*)
 .libpic30_crt_start_mode
                  0x000416          0x2 c:/program files/microchip/xc16/v1.61/bin/bin/../../lib\liblega-pic30-elf.a(crt_start_mode_normalda.Leo)
                  0x000416                  __crt_start_mode
                  0x000416                  __crt_start_mode_normal
 .libm.udivsi3    0x000418         0x20 c:/program files/microchip/xc16/v1.61/bin/bin/../../lib\libm-elf.a(udivsi3.daeo)
                  0x000418                  ___udivsi3
 .libc.strlen     0x000438          0xc c:/program files/microchip/xc16/v1.61/bin/bin/../../lib\liblega-c-elf.a(strlen.DA_eo)
                  0x000438                  _strlen
 .libc.eprout     0x000444         0x1a c:/program files/microchip/xc16/v1.61/bin/bin/../../lib\liblega-c-elf.a(sprintf_cdnopsuxX.DAeo)
                  0x000444                  sprintf_cdnopsuxX.DAeo:_eprout
 .libc.prout      0x00045e          0xe c:/program files/microchip/xc16/v1.61/bin/bin/../../lib\liblega-c-elf.a(sprintf_cdnopsuxX.DAeo)
                  0x00045e                  sprintf_cdnopsuxX.DAeo:_prout
 .libc._sprintf_cdnopsuxX
                  0x00046c         0x20 c:/program files/microchip/xc16/v1.61/bin/bin/../../lib\liblega-c-elf.a(sprintf_cdnopsuxX.DAeo)
                  0x00046c                  __sprintf_cdnopsuxX
 .libc.eprout     0x00048c         0x1e c:/program files/microchip/xc16/v1.61/bin/bin/../../lib\liblega-c-elf.a(xprintf_cdnopsuxX.DAeo)
                  0x00048c                  xprintf_cdnopsuxX.DAeo:_eprout
 .libc.__ePrintf_cdnopsuxX
                  0x0004aa        0x176 c:/program files/microchip/xc16/v1.61/bin/bin/../../lib\liblega-c-elf.a(xprintf_cdnopsuxX.DAeo)
                  0x0004aa                  ___ePrintf_cdnopsuxX
 .libc.__Printf_cdnopsuxX
                  0x000620          0xa c:/program files/microchip/xc16/v1.61/bin/bin/../../lib\liblega-c-elf.a(xprintf_cdnopsuxX.DAeo)
                  0x000620                  ___Printf_cdnopsuxX
 .libc.__Putfld_cdnopsuxX
                  0x00062a        0x294 c:/program files/microchip/xc16/v1.61/bin/bin/../../lib\liblega-c-elf.a(xputfld_cdnopsuxX.DAeo)
                  0x00062a                  ___Putfld_cdnopsuxX
 .libc.memchr     0x0008be         0x14 c:/program files/microchip/xc16/v1.61/bin/bin/../../lib\liblega-c-elf.a(memchr.DA_eo)
                  0x0008be                  _memchr
 .libc.memcpy     0x0008d2          0xe c:/program files/microchip/xc16/v1.61/bin/bin/../../lib\liblega-c-elf.a(memcpy.DA_eo)
                  0x0008d2                  _memcpy
 .libc.strchr     0x0008e0         0x18 c:/program files/microchip/xc16/v1.61/bin/bin/../../lib\liblega-c-elf.a(strchr.DA_eo)
                  0x0008e0                  _strchr
 .libc._Litob     0x0008f8        0x25e c:/program files/microchip/xc16/v1.61/bin/bin/../../lib\liblega-c-elf.a(xlitob.DA_eo)
                  0x0008f8                  __Litob
 .libc._Puttxt    0x000b56        0x1b4 c:/program files/microchip/xc16/v1.61/bin/bin/../../lib\liblega-c-elf.a(xputtxt.DA_eo)
                  0x000b56                  __Puttxt
 .libc._Vacopy    0x000d0a          0x4 c:/program files/microchip/xc16/v1.61/bin/bin/../../lib\liblega-c-elf.a(xvacopy.DA_eo)
                  0x000d0a                  __Vacopy
 .libc.efwrite    0x000d0e         0xd8 c:/program files/microchip/xc16/v1.61/bin/bin/../../lib\liblega-c-elf.a(efwrite.DA_eo)
                  0x000d0e                  _efwrite
 .libc._DNKfflush
                  0x000de6         0x76 c:/program files/microchip/xc16/v1.61/bin/bin/../../lib\liblega-c-elf.a(fflush.DA_elo)
                  0x000de6                  __DNKfflush
 .libc._Fwprep    0x000e5c         0x8e c:/program files/microchip/xc16/v1.61/bin/bin/../../lib\liblega-c-elf.a(xfwprep.DA_eo)
                  0x000e5c                  __Fwprep
 .libc.closeallreg
                  0x000eea          0x4 c:/program files/microchip/xc16/v1.61/bin/bin/../../lib\liblega-c-elf.a(fclose.DA_elo)
 .libc._Closreg
                  0x000eee         0x12 c:/program files/microchip/xc16/v1.61/bin/bin/../../lib\liblega-c-elf.a(fclose.DA_elo)
                  0x000eee                  __Closreg
 .libc.fclose     0x000f00         0x90 c:/program files/microchip/xc16/v1.61/bin/bin/../../lib\liblega-c-elf.a(fclose.DA_elo)
                  0x000f00                  _fclose
 .libc.closeall
                  0x000f90         0x20 c:/program files/microchip/xc16/v1.61/bin/bin/../../lib\liblega-c-elf.a(fclose.DA_elo)
                  0x000f90                  fclose.DA_elo:_closeall
 .libc._Atexit    0x000fb0         0x18 c:/program files/microchip/xc16/v1.61/bin/bin/../../lib\liblega-c-elf.a(xatexit.DA_elo)
                  0x000fb0                  __Atexit
 .libc.free       0x000fc8         0x64 c:/program files/microchip/xc16/v1.61/bin/bin/../../lib\liblega-c-elf.a(free.DA_eo)
                  0x000fc8                  _free
 .libc.findmem    0x00102c         0x66 c:/program files/microchip/xc16/v1.61/bin/bin/../../lib\liblega-c-elf.a(malloc.DA_eo)
 .libc.malloc     0x001092         0x54 c:/program files/microchip/xc16/v1.61/bin/bin/../../lib\liblega-c-elf.a(malloc.DA_eo)
                  0x001092                  _malloc
 .libc._Getmem    0x0010e6         0x14 c:/program files/microchip/xc16/v1.61/bin/bin/../../lib\liblega-c-elf.a(xgetmem.DA_eo)
                  0x0010e6                  __Getmem
 .libc.doclose    0x0010fa          0x4 c:/program files/microchip/xc16/v1.61/bin/bin/../../lib\liblega-pic30-elf.a(closeda.Leo)
 .libc.dowrite    0x0010fe          0x4 c:/program files/microchip/xc16/v1.61/bin/bin/../../lib\liblega-pic30-elf.a(writeda.Leo)
 .libc.doremove
                  0x001102          0x4 c:/program files/microchip/xc16/v1.61/bin/bin/../../lib\liblega-pic30-elf.a(removeda.Leo)
 .libc.memcpy_eds
                  0x001106         0x52 c:/program files/microchip/xc16/v1.61/bin/bin/../../lib\liblega-pic30-elf.a(memcpy_edsda.Leo)
                  0x001106                  __memcpy_eds_3
                  0x001106                  __memcpy_eds
 .libc._memchr_eds
                  0x001158         0x36 c:/program files/microchip/xc16/v1.61/bin/bin/../../lib\liblega-pic30-elf.a(memchr_edsda.Leo)
                  0x001158                  __memchr_eds
 .libm.divsi3     0x00118e         0x1e c:/program files/microchip/xc16/v1.61/bin/bin/../../lib\libm-elf.a(divsi3.daeo)
                  0x00118e                  ___divsi3
 .libm.umodsi3    0x0011ac          0x6 c:/program files/microchip/xc16/v1.61/bin/bin/../../lib\libm-elf.a(umodsi3.daeo)
                  0x0011ac                  ___umodsi3
 .libm.mulsi3     0x0011b2          0xc c:/program files/microchip/xc16/v1.61/bin/bin/../../lib\libm-elf.a(mulsi3.daeo)
                  0x0011b2                  ___mulp32peds3
                  0x0011b2                  ___mulsi3
                  0x0011b2                  ___mulp32eds3
 .libm.__PplusBdi
                  0x0011be         0x26 c:/program files/microchip/xc16/v1.61/bin/bin/../../lib\libm-elf.a(divmoddi3.daeo)
 .libm.__PminusBdi
                  0x0011e4         0x26 c:/program files/microchip/xc16/v1.61/bin/bin/../../lib\libm-elf.a(divmoddi3.daeo)
 .libm.__udivmoddi3
                  0x00120a         0xe6 c:/program files/microchip/xc16/v1.61/bin/bin/../../lib\libm-elf.a(divmoddi3.daeo)
                  0x00120a                  ___udivmoddi3
 .libm.__udivdi3
                  0x0012f0          0xe c:/program files/microchip/xc16/v1.61/bin/bin/../../lib\libm-elf.a(divmoddi3.daeo)
                  0x0012f0                  ___udivdi3
 .libm.__umoddi3
                  0x0012fe          0x8 c:/program files/microchip/xc16/v1.61/bin/bin/../../lib\libm-elf.a(divmoddi3.daeo)
                  0x0012fe                  ___umoddi3
 .libm.__divdi3
                  0x001306         0x60 c:/program files/microchip/xc16/v1.61/bin/bin/../../lib\libm-elf.a(divmoddi3.daeo)
                  0x001306                  ___divdi3
 .libm.__moddi3
                  0x001366         0x5c c:/program files/microchip/xc16/v1.61/bin/bin/../../lib\libm-elf.a(divmoddi3.daeo)
                  0x001366                  ___moddi3

usercode
 *(usercode)

__FBOOT
 *(__FBOOT.sec*)

__FSEC            0x02af00          0x2
 *(__FSEC.sec*)
 __FSEC.sec       0x02af00          0x2 /CW/_FSEC
                  0x02af00                  __FSEC.sec

__FBSLIM
 *(__FBSLIM.sec*)

__FSIGN
 *(__FSIGN.sec*)

__FOSCSEL
 *(__FOSCSEL.sec*)

__FOSC
 *(__FOSC.sec*)

__FWDT
 *(__FWDT.sec*)

__FPOR
 *(__FPOR.sec*)

__FICD
 *(__FICD.sec*)

__FDMTIVTL
 *(__FDMTIVTL.sec*)

__FDMTIVTH
 *(__FDMTIVTH.sec*)

__FDMTCNTL
 *(__FDMTCNTL.sec*)

__FDMTCNTH
 *(__FDMTCNTH.sec*)

__FDMT
 *(__FDMT.sec*)

__FDEVOPT1
 *(__FDEVOPT1.sec*)

.comment          0x000000         0x5e
 *(.comment)
 .comment         0x000000         0x5e c:/program files/microchip/xc16/v1.61/bin/bin/../../lib\liblega-c-elf.a(xfiles.DA_elo)

.debug_info       0x000000       0x44ad
 *(.debug_info)
 .debug_info      0x000000        0xeee build/default/production/hal/hal_uart.o
 .debug_info      0x000eee         0x7f build/default/production/hal/interrupts.o
 .debug_info      0x000f6d        0x278 build/default/production/lib/io.o
 .debug_info      0x0011e5        0x657 build/default/production/lib/wimbus.o
 .debug_info      0x00183c        0xbd7 build/default/production/lib/wimuart.o
 .debug_info      0x002413        0x981 build/default/production/lib/async_uart.o
 .debug_info      0x002d94        0x5c2 build/default/production/lib/driver_init.o
 .debug_info      0x003356        0x2f7 build/default/production/lib/ringbuffer.o
 .debug_info      0x00364d         0xa1 build/default/production/main.o
 .debug_info      0x0036ee        0x32e build/default/production/system.o
 .debug_info      0x003a1c        0xa91 build/default/production/board.o
 *(.gnu.linkonce.wi.*)

.debug_abbrev     0x000000        0xa7e
 *(.debug_abbrev)
 .debug_abbrev    0x000000        0x1ba build/default/production/hal/hal_uart.o
 .debug_abbrev    0x0001ba         0x14 build/default/production/hal/interrupts.o
 .debug_abbrev    0x0001ce         0xab build/default/production/lib/io.o
 .debug_abbrev    0x000279         0xdd build/default/production/lib/wimbus.o
 .debug_abbrev    0x000356        0x1c2 build/default/production/lib/wimuart.o
 .debug_abbrev    0x000518        0x131 build/default/production/lib/async_uart.o
 .debug_abbrev    0x000649         0xea build/default/production/lib/driver_init.o
 .debug_abbrev    0x000733         0xa0 build/default/production/lib/ringbuffer.o
 .debug_abbrev    0x0007d3         0x36 build/default/production/main.o
 .debug_abbrev    0x000809         0xc5 build/default/production/system.o
 .debug_abbrev    0x0008ce        0x1b0 build/default/production/board.o

.debug_line       0x000000        0xaa5
 *(.debug_line)
 .debug_line      0x000000        0x1f4 build/default/production/hal/hal_uart.o
 .debug_line      0x0001f4         0x50 build/default/production/hal/interrupts.o
 .debug_line      0x000244         0x97 build/default/production/lib/io.o
 .debug_line      0x0002db         0xbb build/default/production/lib/wimbus.o
 .debug_line      0x000396        0x15d build/default/production/lib/wimuart.o
 .debug_line      0x0004f3        0x162 build/default/production/lib/async_uart.o
 .debug_line      0x000655         0xfd build/default/production/lib/driver_init.o
 .debug_line      0x000752         0xc7 build/default/production/lib/ringbuffer.o
 .debug_line      0x000819         0x33 build/default/production/main.o
 .debug_line      0x00084c        0x10b build/default/production/system.o
 .debug_line      0x000957        0x14e build/default/production/board.o

.debug_frame      0x000000        0x74e
 *(.debug_frame)
 .debug_frame     0x000000        0x266 build/default/production/hal/hal_uart.o
 .debug_frame     0x000266         0x58 build/default/production/lib/io.o
 .debug_frame     0x0002be         0x94 build/default/production/lib/wimbus.o
 .debug_frame     0x000352         0xdc build/default/production/lib/wimuart.o
 .debug_frame     0x00042e        0x18e build/default/production/lib/async_uart.o
 .debug_frame     0x0005bc         0x24 build/default/production/lib/driver_init.o
 .debug_frame     0x0005e0         0x9e build/default/production/lib/ringbuffer.o
 .debug_frame     0x00067e         0x24 build/default/production/main.o
 .debug_frame     0x0006a2         0x24 build/default/production/system.o
 .debug_frame     0x0006c6         0x88 build/default/production/board.o

.debug_str        0x000000         0xbc
 *(.debug_str)
 .debug_str       0x000000          0xc build/default/production/hal/hal_uart.o
 .debug_str       0x00000c          0xa build/default/production/lib/wimbus.o
 .debug_str       0x000016         0x40 build/default/production/lib/wimuart.o
 .debug_str       0x000056          0xc build/default/production/lib/async_uart.o
 .debug_str       0x000062         0x18 build/default/production/lib/driver_init.o
 .debug_str       0x00007a          0xb build/default/production/system.o
 .debug_str       0x000085         0x37 build/default/production/board.o

.debug_loc
 *(.debug_loc)

.debug_macinfo
 *(.debug_macinfo)

.debug_pubnames
                  0x000000        0x671
 *(.debug_pubnames)
 .debug_pubnames
                  0x000000        0x232 build/default/production/hal/hal_uart.o
 .debug_pubnames
                  0x000232         0x2b build/default/production/lib/io.o
 .debug_pubnames
                  0x00025d         0xca build/default/production/lib/wimbus.o
 .debug_pubnames
                  0x000327         0x7c build/default/production/lib/wimuart.o
 .debug_pubnames
                  0x0003a3        0x128 build/default/production/lib/async_uart.o
 .debug_pubnames
                  0x0004cb         0x6b build/default/production/lib/driver_init.o
 .debug_pubnames
                  0x000536         0x74 build/default/production/lib/ringbuffer.o
 .debug_pubnames
                  0x0005aa         0x1b build/default/production/main.o
 .debug_pubnames
                  0x0005c5         0x2e build/default/production/system.o
 .debug_pubnames
                  0x0005f3         0x7e build/default/production/board.o

.debug_ranges
 *(.debug_ranges)

.debug_aranges    0x000000        0x108
 *(.debug_aranges)
 .debug_aranges
                  0x000000         0x18 build/default/production/hal/hal_uart.o
 .debug_aranges
                  0x000018         0x18 build/default/production/hal/interrupts.o
 .debug_aranges
                  0x000030         0x18 build/default/production/lib/io.o
 .debug_aranges
                  0x000048         0x18 build/default/production/lib/wimbus.o
 .debug_aranges
                  0x000060         0x18 build/default/production/lib/wimuart.o
 .debug_aranges
                  0x000078         0x18 build/default/production/lib/async_uart.o
 .debug_aranges
                  0x000090         0x18 build/default/production/lib/driver_init.o
 .debug_aranges
                  0x0000a8         0x18 build/default/production/lib/ringbuffer.o
 .debug_aranges
                  0x0000c0         0x18 build/default/production/main.o
 .debug_aranges
                  0x0000d8         0x18 build/default/production/system.o
 .debug_aranges
                  0x0000f0         0x18 build/default/production/board.o
                    0x0000                  WREG0 = 0x0
                    0x0000                  _WREG0 = 0x0
                    0x0002                  WREG1 = 0x2
                    0x0002                  _WREG1 = 0x2
                    0x0004                  WREG2 = 0x4
                    0x0004                  _WREG2 = 0x4
                    0x0006                  WREG3 = 0x6
                    0x0006                  _WREG3 = 0x6
                    0x0008                  WREG4 = 0x8
                    0x0008                  _WREG4 = 0x8
                    0x000a                  WREG5 = 0xa
                    0x000a                  _WREG5 = 0xa
                    0x000c                  WREG6 = 0xc
                    0x000c                  _WREG6 = 0xc
                    0x000e                  WREG7 = 0xe
                    0x000e                  _WREG7 = 0xe
                    0x0010                  WREG8 = 0x10
                    0x0010                  _WREG8 = 0x10
                    0x0012                  WREG9 = 0x12
                    0x0012                  _WREG9 = 0x12
                    0x0014                  WREG10 = 0x14
                    0x0014                  _WREG10 = 0x14
                    0x0016                  WREG11 = 0x16
                    0x0016                  _WREG11 = 0x16
                    0x0018                  WREG12 = 0x18
                    0x0018                  _WREG12 = 0x18
                    0x001a                  WREG13 = 0x1a
                    0x001a                  _WREG13 = 0x1a
                    0x001c                  WREG14 = 0x1c
                    0x001c                  _WREG14 = 0x1c
                    0x001e                  WREG15 = 0x1e
                    0x001e                  _WREG15 = 0x1e
                    0x0020                  SPLIM = 0x20
                    0x0020                  _SPLIM = 0x20
                    0x002e                  PCL = 0x2e
                    0x002e                  _PCL = 0x2e
                    0x0030                  PCH = 0x30
                    0x0030                  _PCH = 0x30
                    0x0032                  DSRPAG = 0x32
                    0x0032                  _DSRPAG = 0x32
                    0x0032                  _DSRPAGbits = 0x32
                    0x0034                  DSWPAG = 0x34
                    0x0034                  _DSWPAG = 0x34
                    0x0034                  _DSWPAGbits = 0x34
                    0x0036                  RCOUNT = 0x36
                    0x0036                  _RCOUNT = 0x36
                    0x0042                  SR = 0x42
                    0x0042                  _SR = 0x42
                    0x0042                  _SRbits = 0x42
                    0x0044                  CORCON = 0x44
                    0x0044                  _CORCON = 0x44
                    0x0044                  _CORCONbits = 0x44
                    0x0052                  DISICNT = 0x52
                    0x0052                  _DISICNT = 0x52
                    0x0052                  _DISICNTbits = 0x52
                    0x0054                  TBLPAG = 0x54
                    0x0054                  _TBLPAG = 0x54
                    0x0054                  _TBLPAGbits = 0x54
                    0x005c                  DMTCON = 0x5c
                    0x005c                  _DMTCON = 0x5c
                    0x005c                  _DMTCONbits = 0x5c
                    0x0060                  DMTPRECLR = 0x60
                    0x0060                  _DMTPRECLR = 0x60
                    0x0060                  _DMTPRECLRbits = 0x60
                    0x0064                  DMTCLR = 0x64
                    0x0064                  _DMTCLR = 0x64
                    0x0064                  _DMTCLRbits = 0x64
                    0x0068                  DMTSTAT = 0x68
                    0x0068                  _DMTSTAT = 0x68
                    0x0068                  _DMTSTATbits = 0x68
                    0x006c                  DMTCNTL = 0x6c
                    0x006c                  _DMTCNTL = 0x6c
                    0x006e                  DMTCNTH = 0x6e
                    0x006e                  _DMTCNTH = 0x6e
                    0x0070                  DMTHOLDREG = 0x70
                    0x0070                  _DMTHOLDREG = 0x70
                    0x0074                  DMTPSCNTL = 0x74
                    0x0074                  _DMTPSCNTL = 0x74
                    0x0076                  DMTPSCNTH = 0x76
                    0x0076                  _DMTPSCNTH = 0x76
                    0x0078                  DMTPSINTVL = 0x78
                    0x0078                  _DMTPSINTVL = 0x78
                    0x007a                  DMTPSINTVH = 0x7a
                    0x007a                  _DMTPSINTVH = 0x7a
                    0x0080                  INTCON1 = 0x80
                    0x0080                  _INTCON1 = 0x80
                    0x0080                  _INTCON1bits = 0x80
                    0x0082                  INTCON2 = 0x82
                    0x0082                  _INTCON2 = 0x82
                    0x0082                  _INTCON2bits = 0x82
                    0x0084                  INTCON3 = 0x84
                    0x0084                  _INTCON3 = 0x84
                    0x0084                  _INTCON3bits = 0x84
                    0x0086                  INTCON4 = 0x86
                    0x0086                  _INTCON4 = 0x86
                    0x0086                  _INTCON4bits = 0x86
                    0x0088                  IFS0 = 0x88
                    0x0088                  _IFS0 = 0x88
                    0x0088                  _IFS0bits = 0x88
                    0x008a                  IFS1 = 0x8a
                    0x008a                  _IFS1 = 0x8a
                    0x008a                  _IFS1bits = 0x8a
                    0x008c                  IFS2 = 0x8c
                    0x008c                  _IFS2 = 0x8c
                    0x008c                  _IFS2bits = 0x8c
                    0x008e                  IFS3 = 0x8e
                    0x008e                  _IFS3 = 0x8e
                    0x008e                  _IFS3bits = 0x8e
                    0x0090                  IFS4 = 0x90
                    0x0090                  _IFS4 = 0x90
                    0x0090                  _IFS4bits = 0x90
                    0x0092                  IFS5 = 0x92
                    0x0092                  _IFS5 = 0x92
                    0x0092                  _IFS5bits = 0x92
                    0x0094                  IFS6 = 0x94
                    0x0094                  _IFS6 = 0x94
                    0x0094                  _IFS6bits = 0x94
                    0x0096                  IFS7 = 0x96
                    0x0096                  _IFS7 = 0x96
                    0x0096                  _IFS7bits = 0x96
                    0x0098                  IEC0 = 0x98
                    0x0098                  _IEC0 = 0x98
                    0x0098                  _IEC0bits = 0x98
                    0x009a                  IEC1 = 0x9a
                    0x009a                  _IEC1 = 0x9a
                    0x009a                  _IEC1bits = 0x9a
                    0x009c                  IEC2 = 0x9c
                    0x009c                  _IEC2 = 0x9c
                    0x009c                  _IEC2bits = 0x9c
                    0x009e                  IEC3 = 0x9e
                    0x009e                  _IEC3 = 0x9e
                    0x009e                  _IEC3bits = 0x9e
                    0x00a0                  IEC4 = 0xa0
                    0x00a0                  _IEC4 = 0xa0
                    0x00a0                  _IEC4bits = 0xa0
                    0x00a2                  IEC5 = 0xa2
                    0x00a2                  _IEC5 = 0xa2
                    0x00a2                  _IEC5bits = 0xa2
                    0x00a4                  IEC6 = 0xa4
                    0x00a4                  _IEC6 = 0xa4
                    0x00a4                  _IEC6bits = 0xa4
                    0x00a6                  IEC7 = 0xa6
                    0x00a6                  _IEC7 = 0xa6
                    0x00a6                  _IEC7bits = 0xa6
                    0x00a8                  IPC0 = 0xa8
                    0x00a8                  _IPC0 = 0xa8
                    0x00a8                  _IPC0bits = 0xa8
                    0x00aa                  IPC1 = 0xaa
                    0x00aa                  _IPC1 = 0xaa
                    0x00aa                  _IPC1bits = 0xaa
                    0x00ac                  IPC2 = 0xac
                    0x00ac                  _IPC2 = 0xac
                    0x00ac                  _IPC2bits = 0xac
                    0x00ae                  IPC3 = 0xae
                    0x00ae                  _IPC3 = 0xae
                    0x00ae                  _IPC3bits = 0xae
                    0x00b0                  IPC4 = 0xb0
                    0x00b0                  _IPC4 = 0xb0
                    0x00b0                  _IPC4bits = 0xb0
                    0x00b2                  IPC5 = 0xb2
                    0x00b2                  _IPC5 = 0xb2
                    0x00b2                  _IPC5bits = 0xb2
                    0x00b4                  IPC6 = 0xb4
                    0x00b4                  _IPC6 = 0xb4
                    0x00b4                  _IPC6bits = 0xb4
                    0x00b6                  IPC7 = 0xb6
                    0x00b6                  _IPC7 = 0xb6
                    0x00b6                  _IPC7bits = 0xb6
                    0x00b8                  IPC8 = 0xb8
                    0x00b8                  _IPC8 = 0xb8
                    0x00b8                  _IPC8bits = 0xb8
                    0x00ba                  IPC9 = 0xba
                    0x00ba                  _IPC9 = 0xba
                    0x00ba                  _IPC9bits = 0xba
                    0x00bc                  IPC10 = 0xbc
                    0x00bc                  _IPC10 = 0xbc
                    0x00bc                  _IPC10bits = 0xbc
                    0x00be                  IPC11 = 0xbe
                    0x00be                  _IPC11 = 0xbe
                    0x00be                  _IPC11bits = 0xbe
                    0x00c0                  IPC12 = 0xc0
                    0x00c0                  _IPC12 = 0xc0
                    0x00c0                  _IPC12bits = 0xc0
                    0x00c2                  IPC13 = 0xc2
                    0x00c2                  _IPC13 = 0xc2
                    0x00c2                  _IPC13bits = 0xc2
                    0x00c4                  IPC14 = 0xc4
                    0x00c4                  _IPC14 = 0xc4
                    0x00c4                  _IPC14bits = 0xc4
                    0x00c6                  IPC15 = 0xc6
                    0x00c6                  _IPC15 = 0xc6
                    0x00c6                  _IPC15bits = 0xc6
                    0x00c8                  IPC16 = 0xc8
                    0x00c8                  _IPC16 = 0xc8
                    0x00c8                  _IPC16bits = 0xc8
                    0x00ca                  IPC17 = 0xca
                    0x00ca                  _IPC17 = 0xca
                    0x00ca                  _IPC17bits = 0xca
                    0x00cc                  IPC18 = 0xcc
                    0x00cc                  _IPC18 = 0xcc
                    0x00cc                  _IPC18bits = 0xcc
                    0x00ce                  IPC19 = 0xce
                    0x00ce                  _IPC19 = 0xce
                    0x00ce                  _IPC19bits = 0xce
                    0x00d0                  IPC20 = 0xd0
                    0x00d0                  _IPC20 = 0xd0
                    0x00d0                  _IPC20bits = 0xd0
                    0x00d2                  IPC21 = 0xd2
                    0x00d2                  _IPC21 = 0xd2
                    0x00d2                  _IPC21bits = 0xd2
                    0x00d4                  IPC22 = 0xd4
                    0x00d4                  _IPC22 = 0xd4
                    0x00d4                  _IPC22bits = 0xd4
                    0x00d6                  IPC23 = 0xd6
                    0x00d6                  _IPC23 = 0xd6
                    0x00d6                  _IPC23bits = 0xd6
                    0x00d8                  IPC24 = 0xd8
                    0x00d8                  _IPC24 = 0xd8
                    0x00d8                  _IPC24bits = 0xd8
                    0x00da                  IPC25 = 0xda
                    0x00da                  _IPC25 = 0xda
                    0x00da                  _IPC25bits = 0xda
                    0x00dc                  IPC26 = 0xdc
                    0x00dc                  _IPC26 = 0xdc
                    0x00dc                  _IPC26bits = 0xdc
                    0x00de                  IPC27 = 0xde
                    0x00de                  _IPC27 = 0xde
                    0x00de                  _IPC27bits = 0xde
                    0x00e0                  IPC28 = 0xe0
                    0x00e0                  _IPC28 = 0xe0
                    0x00e0                  _IPC28bits = 0xe0
                    0x00e2                  IPC29 = 0xe2
                    0x00e2                  _IPC29 = 0xe2
                    0x00e2                  _IPC29bits = 0xe2
                    0x00e4                  INTTREG = 0xe4
                    0x00e4                  _INTTREG = 0xe4
                    0x00e4                  _INTTREGbits = 0xe4
                    0x0100                  OSCCON = 0x100
                    0x0100                  _OSCCON = 0x100
                    0x0100                  _OSCCONbits = 0x100
                    0x0100                  OSCCONL = 0x100
                    0x0100                  _OSCCONL = 0x100
                    0x0101                  OSCCONH = 0x101
                    0x0101                  _OSCCONH = 0x101
                    0x0102                  CLKDIV = 0x102
                    0x0102                  _CLKDIV = 0x102
                    0x0102                  _CLKDIVbits = 0x102
                    0x0106                  OSCTUN = 0x106
                    0x0106                  _OSCTUN = 0x106
                    0x0106                  _OSCTUNbits = 0x106
                    0x010c                  OSCDIV = 0x10c
                    0x010c                  _OSCDIV = 0x10c
                    0x010c                  _OSCDIVbits = 0x10c
                    0x010e                  OSCFDIV = 0x10e
                    0x010e                  _OSCFDIV = 0x10e
                    0x010e                  _OSCFDIVbits = 0x10e
                    0x0110                  RCON = 0x110
                    0x0110                  _RCON = 0x110
                    0x0110                  _RCONbits = 0x110
                    0x0114                  HLVDCON = 0x114
                    0x0114                  _HLVDCON = 0x114
                    0x0114                  _HLVDCONbits = 0x114
                    0x0158                  CRCCON1 = 0x158
                    0x0158                  _CRCCON1 = 0x158
                    0x0158                  _CRCCON1bits = 0x158
                    0x015a                  CRCCON2 = 0x15a
                    0x015a                  _CRCCON2 = 0x15a
                    0x015a                  _CRCCON2bits = 0x15a
                    0x015c                  CRCXORL = 0x15c
                    0x015c                  _CRCXORL = 0x15c
                    0x015c                  _CRCXORLbits = 0x15c
                    0x015e                  CRCXORH = 0x15e
                    0x015e                  _CRCXORH = 0x15e
                    0x015e                  _CRCXORHbits = 0x15e
                    0x0160                  CRCDAT = 0x160
                    0x0160                  _CRCDAT = 0x160
                    0x0160                  CRCDATL = 0x160
                    0x0160                  _CRCDATL = 0x160
                    0x0162                  CRCDATH = 0x162
                    0x0162                  _CRCDATH = 0x162
                    0x0164                  CRCWDAT = 0x164
                    0x0164                  _CRCWDAT = 0x164
                    0x0164                  CRCWDATL = 0x164
                    0x0164                  _CRCWDATL = 0x164
                    0x0166                  CRCWDATH = 0x166
                    0x0166                  _CRCWDATH = 0x166
                    0x0168                  REFOCON1 = 0x168
                    0x0168                  _REFOCON1 = 0x168
                    0x0168                  _REFOCON1bits = 0x168
                    0x0168                  REFOCONL = 0x168
                    0x0168                  _REFOCONL = 0x168
                    0x0168                  _REFOCONLbits = 0x168
                    0x016a                  REFOCON2 = 0x16a
                    0x016a                  _REFOCON2 = 0x16a
                    0x016a                  _REFOCON2bits = 0x16a
                    0x016a                  REFOCONH = 0x16a
                    0x016a                  _REFOCONH = 0x16a
                    0x016a                  _REFOCONHbits = 0x16a
                    0x0178                  PMD1 = 0x178
                    0x0178                  _PMD1 = 0x178
                    0x0178                  _PMD1bits = 0x178
                    0x017c                  PMD3 = 0x17c
                    0x017c                  _PMD3 = 0x17c
                    0x017c                  _PMD3bits = 0x17c
                    0x017e                  PMD4 = 0x17e
                    0x017e                  _PMD4 = 0x17e
                    0x017e                  _PMD4bits = 0x17e
                    0x0180                  PMD5 = 0x180
                    0x0180                  _PMD5 = 0x180
                    0x0180                  _PMD5bits = 0x180
                    0x0182                  PMD6 = 0x182
                    0x0182                  _PMD6 = 0x182
                    0x0182                  _PMD6bits = 0x182
                    0x0184                  PMD7 = 0x184
                    0x0184                  _PMD7 = 0x184
                    0x0184                  _PMD7bits = 0x184
                    0x0186                  PMD8 = 0x186
                    0x0186                  _PMD8 = 0x186
                    0x0186                  _PMD8bits = 0x186
                    0x0190                  TMR1 = 0x190
                    0x0190                  _TMR1 = 0x190
                    0x0192                  PR1 = 0x192
                    0x0192                  _PR1 = 0x192
                    0x0194                  T1CON = 0x194
                    0x0194                  _T1CON = 0x194
                    0x0194                  _T1CONbits = 0x194
                    0x0196                  TMR2 = 0x196
                    0x0196                  _TMR2 = 0x196
                    0x0198                  TMR3HLD = 0x198
                    0x0198                  _TMR3HLD = 0x198
                    0x019a                  TMR3 = 0x19a
                    0x019a                  _TMR3 = 0x19a
                    0x019c                  PR2 = 0x19c
                    0x019c                  _PR2 = 0x19c
                    0x019e                  PR3 = 0x19e
                    0x019e                  _PR3 = 0x19e
                    0x01a0                  T2CON = 0x1a0
                    0x01a0                  _T2CON = 0x1a0
                    0x01a0                  _T2CONbits = 0x1a0
                    0x01a2                  T3CON = 0x1a2
                    0x01a2                  _T3CON = 0x1a2
                    0x01a2                  _T3CONbits = 0x1a2
                    0x01a4                  TMR4 = 0x1a4
                    0x01a4                  _TMR4 = 0x1a4
                    0x01a6                  TMR5HLD = 0x1a6
                    0x01a6                  _TMR5HLD = 0x1a6
                    0x01a8                  TMR5 = 0x1a8
                    0x01a8                  _TMR5 = 0x1a8
                    0x01aa                  PR4 = 0x1aa
                    0x01aa                  _PR4 = 0x1aa
                    0x01ac                  PR5 = 0x1ac
                    0x01ac                  _PR5 = 0x1ac
                    0x01ae                  T4CON = 0x1ae
                    0x01ae                  _T4CON = 0x1ae
                    0x01ae                  _T4CONbits = 0x1ae
                    0x01b0                  T5CON = 0x1b0
                    0x01b0                  _T5CON = 0x1b0
                    0x01b0                  _T5CONbits = 0x1b0
                    0x01cc                  RTCCON1L = 0x1cc
                    0x01cc                  _RTCCON1L = 0x1cc
                    0x01cc                  _RTCCON1Lbits = 0x1cc
                    0x01ce                  RTCCON1H = 0x1ce
                    0x01ce                  _RTCCON1H = 0x1ce
                    0x01ce                  _RTCCON1Hbits = 0x1ce
                    0x01d0                  RTCCON2L = 0x1d0
                    0x01d0                  _RTCCON2L = 0x1d0
                    0x01d0                  _RTCCON2Lbits = 0x1d0
                    0x01d2                  RTCCON2H = 0x1d2
                    0x01d2                  _RTCCON2H = 0x1d2
                    0x01d4                  RTCCON3L = 0x1d4
                    0x01d4                  _RTCCON3L = 0x1d4
                    0x01d4                  _RTCCON3Lbits = 0x1d4
                    0x01d8                  RTCSTATL = 0x1d8
                    0x01d8                  _RTCSTATL = 0x1d8
                    0x01d8                  _RTCSTATLbits = 0x1d8
                    0x01dc                  TIMEL = 0x1dc
                    0x01dc                  _TIMEL = 0x1dc
                    0x01dc                  _TIMELbits = 0x1dc
                    0x01de                  TIMEH = 0x1de
                    0x01de                  _TIMEH = 0x1de
                    0x01de                  _TIMEHbits = 0x1de
                    0x01e0                  DATEL = 0x1e0
                    0x01e0                  _DATEL = 0x1e0
                    0x01e0                  _DATELbits = 0x1e0
                    0x01e2                  DATEH = 0x1e2
                    0x01e2                  _DATEH = 0x1e2
                    0x01e2                  _DATEHbits = 0x1e2
                    0x01e4                  ALMTIMEL = 0x1e4
                    0x01e4                  _ALMTIMEL = 0x1e4
                    0x01e4                  _ALMTIMELbits = 0x1e4
                    0x01e6                  ALMTIMEH = 0x1e6
                    0x01e6                  _ALMTIMEH = 0x1e6
                    0x01e6                  _ALMTIMEHbits = 0x1e6
                    0x01e8                  ALMDATEL = 0x1e8
                    0x01e8                  _ALMDATEL = 0x1e8
                    0x01e8                  _ALMDATELbits = 0x1e8
                    0x01ea                  ALMDATEH = 0x1ea
                    0x01ea                  _ALMDATEH = 0x1ea
                    0x01ea                  _ALMDATEHbits = 0x1ea
                    0x01ec                  TSATIMEL = 0x1ec
                    0x01ec                  _TSATIMEL = 0x1ec
                    0x01ec                  _TSATIMELbits = 0x1ec
                    0x01ee                  TSATIMEH = 0x1ee
                    0x01ee                  _TSATIMEH = 0x1ee
                    0x01ee                  _TSATIMEHbits = 0x1ee
                    0x01f0                  TSADATEL = 0x1f0
                    0x01f0                  _TSADATEL = 0x1f0
                    0x01f0                  _TSADATELbits = 0x1f0
                    0x01f2                  TSADATEH = 0x1f2
                    0x01f2                  _TSADATEH = 0x1f2
                    0x01f2                  _TSADATEHbits = 0x1f2
                    0x0248                  CCP8CON1L = 0x248
                    0x0248                  _CCP8CON1L = 0x248
                    0x0248                  _CCP8CON1Lbits = 0x248
                    0x024a                  CCP8CON1H = 0x24a
                    0x024a                  _CCP8CON1H = 0x24a
                    0x024a                  _CCP8CON1Hbits = 0x24a
                    0x024c                  CCP8CON2L = 0x24c
                    0x024c                  _CCP8CON2L = 0x24c
                    0x024c                  _CCP8CON2Lbits = 0x24c
                    0x024e                  CCP8CON2H = 0x24e
                    0x024e                  _CCP8CON2H = 0x24e
                    0x024e                  _CCP8CON2Hbits = 0x24e
                    0x0250                  CCP8CON3L = 0x250
                    0x0250                  _CCP8CON3L = 0x250
                    0x0250                  _CCP8CON3Lbits = 0x250
                    0x0252                  CCP8CON3H = 0x252
                    0x0252                  _CCP8CON3H = 0x252
                    0x0252                  _CCP8CON3Hbits = 0x252
                    0x0254                  CCP8STAT = 0x254
                    0x0254                  _CCP8STAT = 0x254
                    0x0254                  _CCP8STATbits = 0x254
                    0x0254                  CCP8STATL = 0x254
                    0x0254                  _CCP8STATL = 0x254
                    0x0254                  _CCP8STATLbits = 0x254
                    0x0256                  CCP8STATH = 0x256
                    0x0256                  _CCP8STATH = 0x256
                    0x0258                  CCP8TMRL = 0x258
                    0x0258                  _CCP8TMRL = 0x258
                    0x025a                  CCP8TMRH = 0x25a
                    0x025a                  _CCP8TMRH = 0x25a
                    0x025c                  CCP8PRL = 0x25c
                    0x025c                  _CCP8PRL = 0x25c
                    0x025e                  CCP8PRH = 0x25e
                    0x025e                  _CCP8PRH = 0x25e
                    0x0260                  CCP8RA = 0x260
                    0x0260                  _CCP8RA = 0x260
                    0x0260                  CCP8RAL = 0x260
                    0x0260                  _CCP8RAL = 0x260
                    0x0262                  CCP8RAH = 0x262
                    0x0262                  _CCP8RAH = 0x262
                    0x0264                  CCP8RB = 0x264
                    0x0264                  _CCP8RB = 0x264
                    0x0264                  CCP8RBL = 0x264
                    0x0264                  _CCP8RBL = 0x264
                    0x0266                  CCP8RBH = 0x266
                    0x0266                  _CCP8RBH = 0x266
                    0x0268                  CCP8BUFL = 0x268
                    0x0268                  _CCP8BUFL = 0x268
                    0x026a                  CCP8BUFH = 0x26a
                    0x026a                  _CCP8BUFH = 0x26a
                    0x026c                  CCP1CON1L = 0x26c
                    0x026c                  _CCP1CON1L = 0x26c
                    0x026c                  _CCP1CON1Lbits = 0x26c
                    0x026e                  CCP1CON1H = 0x26e
                    0x026e                  _CCP1CON1H = 0x26e
                    0x026e                  _CCP1CON1Hbits = 0x26e
                    0x0270                  CCP1CON2L = 0x270
                    0x0270                  _CCP1CON2L = 0x270
                    0x0270                  _CCP1CON2Lbits = 0x270
                    0x0272                  CCP1CON2H = 0x272
                    0x0272                  _CCP1CON2H = 0x272
                    0x0272                  _CCP1CON2Hbits = 0x272
                    0x0274                  CCP1CON3L = 0x274
                    0x0274                  _CCP1CON3L = 0x274
                    0x0274                  _CCP1CON3Lbits = 0x274
                    0x0276                  CCP1CON3H = 0x276
                    0x0276                  _CCP1CON3H = 0x276
                    0x0276                  _CCP1CON3Hbits = 0x276
                    0x0278                  CCP1STAT = 0x278
                    0x0278                  _CCP1STAT = 0x278
                    0x0278                  _CCP1STATbits = 0x278
                    0x0278                  CCP1STATL = 0x278
                    0x0278                  _CCP1STATL = 0x278
                    0x0278                  _CCP1STATLbits = 0x278
                    0x027a                  CCP1STATH = 0x27a
                    0x027a                  _CCP1STATH = 0x27a
                    0x027c                  CCP1TMRL = 0x27c
                    0x027c                  _CCP1TMRL = 0x27c
                    0x027e                  CCP1TMRH = 0x27e
                    0x027e                  _CCP1TMRH = 0x27e
                    0x0280                  CCP1PRL = 0x280
                    0x0280                  _CCP1PRL = 0x280
                    0x0282                  CCP1PRH = 0x282
                    0x0282                  _CCP1PRH = 0x282
                    0x0284                  CCP1RA = 0x284
                    0x0284                  _CCP1RA = 0x284
                    0x0284                  CCP1RAL = 0x284
                    0x0284                  _CCP1RAL = 0x284
                    0x0286                  CCP1RAH = 0x286
                    0x0286                  _CCP1RAH = 0x286
                    0x0288                  CCP1RB = 0x288
                    0x0288                  _CCP1RB = 0x288
                    0x0288                  CCP1RBL = 0x288
                    0x0288                  _CCP1RBL = 0x288
                    0x028a                  CCP1RBH = 0x28a
                    0x028a                  _CCP1RBH = 0x28a
                    0x028c                  CCP1BUFL = 0x28c
                    0x028c                  _CCP1BUFL = 0x28c
                    0x028e                  CCP1BUFH = 0x28e
                    0x028e                  _CCP1BUFH = 0x28e
                    0x0290                  CCP2CON1L = 0x290
                    0x0290                  _CCP2CON1L = 0x290
                    0x0290                  _CCP2CON1Lbits = 0x290
                    0x0292                  CCP2CON1H = 0x292
                    0x0292                  _CCP2CON1H = 0x292
                    0x0292                  _CCP2CON1Hbits = 0x292
                    0x0294                  CCP2CON2L = 0x294
                    0x0294                  _CCP2CON2L = 0x294
                    0x0294                  _CCP2CON2Lbits = 0x294
                    0x0296                  CCP2CON2H = 0x296
                    0x0296                  _CCP2CON2H = 0x296
                    0x0296                  _CCP2CON2Hbits = 0x296
                    0x0298                  CCP2CON3L = 0x298
                    0x0298                  _CCP2CON3L = 0x298
                    0x0298                  _CCP2CON3Lbits = 0x298
                    0x029a                  CCP2CON3H = 0x29a
                    0x029a                  _CCP2CON3H = 0x29a
                    0x029a                  _CCP2CON3Hbits = 0x29a
                    0x029c                  CCP2STAT = 0x29c
                    0x029c                  _CCP2STAT = 0x29c
                    0x029c                  _CCP2STATbits = 0x29c
                    0x029c                  CCP2STATL = 0x29c
                    0x029c                  _CCP2STATL = 0x29c
                    0x029c                  _CCP2STATLbits = 0x29c
                    0x029e                  CCP2STATH = 0x29e
                    0x029e                  _CCP2STATH = 0x29e
                    0x02a0                  CCP2TMRL = 0x2a0
                    0x02a0                  _CCP2TMRL = 0x2a0
                    0x02a2                  CCP2TMRH = 0x2a2
                    0x02a2                  _CCP2TMRH = 0x2a2
                    0x02a4                  CCP2PRL = 0x2a4
                    0x02a4                  _CCP2PRL = 0x2a4
                    0x02a6                  CCP2PRH = 0x2a6
                    0x02a6                  _CCP2PRH = 0x2a6
                    0x02a8                  CCP2RA = 0x2a8
                    0x02a8                  _CCP2RA = 0x2a8
                    0x02a8                  CCP2RAL = 0x2a8
                    0x02a8                  _CCP2RAL = 0x2a8
                    0x02aa                  CCP2RAH = 0x2aa
                    0x02aa                  _CCP2RAH = 0x2aa
                    0x02ac                  CCP2RB = 0x2ac
                    0x02ac                  _CCP2RB = 0x2ac
                    0x02ac                  CCP2RBL = 0x2ac
                    0x02ac                  _CCP2RBL = 0x2ac
                    0x02ae                  CCP2RBH = 0x2ae
                    0x02ae                  _CCP2RBH = 0x2ae
                    0x02b0                  CCP2BUFL = 0x2b0
                    0x02b0                  _CCP2BUFL = 0x2b0
                    0x02b2                  CCP2BUFH = 0x2b2
                    0x02b2                  _CCP2BUFH = 0x2b2
                    0x02b4                  CCP3CON1L = 0x2b4
                    0x02b4                  _CCP3CON1L = 0x2b4
                    0x02b4                  _CCP3CON1Lbits = 0x2b4
                    0x02b6                  CCP3CON1H = 0x2b6
                    0x02b6                  _CCP3CON1H = 0x2b6
                    0x02b6                  _CCP3CON1Hbits = 0x2b6
                    0x02b8                  CCP3CON2L = 0x2b8
                    0x02b8                  _CCP3CON2L = 0x2b8
                    0x02b8                  _CCP3CON2Lbits = 0x2b8
                    0x02ba                  CCP3CON2H = 0x2ba
                    0x02ba                  _CCP3CON2H = 0x2ba
                    0x02ba                  _CCP3CON2Hbits = 0x2ba
                    0x02bc                  CCP3CON3L = 0x2bc
                    0x02bc                  _CCP3CON3L = 0x2bc
                    0x02bc                  _CCP3CON3Lbits = 0x2bc
                    0x02be                  CCP3CON3H = 0x2be
                    0x02be                  _CCP3CON3H = 0x2be
                    0x02be                  _CCP3CON3Hbits = 0x2be
                    0x02c0                  CCP3STAT = 0x2c0
                    0x02c0                  _CCP3STAT = 0x2c0
                    0x02c0                  _CCP3STATbits = 0x2c0
                    0x02c0                  CCP3STATL = 0x2c0
                    0x02c0                  _CCP3STATL = 0x2c0
                    0x02c0                  _CCP3STATLbits = 0x2c0
                    0x02c2                  CCP3STATH = 0x2c2
                    0x02c2                  _CCP3STATH = 0x2c2
                    0x02c4                  CCP3TMRL = 0x2c4
                    0x02c4                  _CCP3TMRL = 0x2c4
                    0x02c6                  CCP3TMRH = 0x2c6
                    0x02c6                  _CCP3TMRH = 0x2c6
                    0x02c8                  CCP3PRL = 0x2c8
                    0x02c8                  _CCP3PRL = 0x2c8
                    0x02ca                  CCP3PRH = 0x2ca
                    0x02ca                  _CCP3PRH = 0x2ca
                    0x02cc                  CCP3RA = 0x2cc
                    0x02cc                  _CCP3RA = 0x2cc
                    0x02cc                  CCP3RAL = 0x2cc
                    0x02cc                  _CCP3RAL = 0x2cc
                    0x02ce                  CCP3RAH = 0x2ce
                    0x02ce                  _CCP3RAH = 0x2ce
                    0x02d0                  CCP3RB = 0x2d0
                    0x02d0                  _CCP3RB = 0x2d0
                    0x02d0                  CCP3RBL = 0x2d0
                    0x02d0                  _CCP3RBL = 0x2d0
                    0x02d2                  CCP3RBH = 0x2d2
                    0x02d2                  _CCP3RBH = 0x2d2
                    0x02d4                  CCP3BUFL = 0x2d4
                    0x02d4                  _CCP3BUFL = 0x2d4
                    0x02d6                  CCP3BUFH = 0x2d6
                    0x02d6                  _CCP3BUFH = 0x2d6
                    0x02e6                  CMSTAT = 0x2e6
                    0x02e6                  _CMSTAT = 0x2e6
                    0x02e6                  _CMSTATbits = 0x2e6
                    0x02e8                  CVRCON = 0x2e8
                    0x02e8                  _CVRCON = 0x2e8
                    0x02e8                  _CVRCONbits = 0x2e8
                    0x02ea                  CM1CON = 0x2ea
                    0x02ea                  _CM1CON = 0x2ea
                    0x02ea                  _CM1CONbits = 0x2ea
                    0x02ec                  CM2CON = 0x2ec
                    0x02ec                  _CM2CON = 0x2ec
                    0x02ec                  _CM2CONbits = 0x2ec
                    0x02ee                  CM3CON = 0x2ee
                    0x02ee                  _CM3CON = 0x2ee
                    0x02ee                  _CM3CONbits = 0x2ee
                    0x02f4                  ANCFG = 0x2f4
                    0x02f4                  _ANCFG = 0x2f4
                    0x02f4                  _ANCFGbits = 0x2f4
                    0x02f8                  DAC1CON = 0x2f8
                    0x02f8                  _DAC1CON = 0x2f8
                    0x02f8                  _DAC1CONbits = 0x2f8
                    0x02fa                  DAC1DAT = 0x2fa
                    0x02fa                  _DAC1DAT = 0x2fa
                    0x0300                  CCP4CON1L = 0x300
                    0x0300                  _CCP4CON1L = 0x300
                    0x0300                  _CCP4CON1Lbits = 0x300
                    0x0302                  CCP4CON1H = 0x302
                    0x0302                  _CCP4CON1H = 0x302
                    0x0302                  _CCP4CON1Hbits = 0x302
                    0x0304                  CCP4CON2L = 0x304
                    0x0304                  _CCP4CON2L = 0x304
                    0x0304                  _CCP4CON2Lbits = 0x304
                    0x0306                  CCP4CON2H = 0x306
                    0x0306                  _CCP4CON2H = 0x306
                    0x0306                  _CCP4CON2Hbits = 0x306
                    0x0308                  CCP4CON3L = 0x308
                    0x0308                  _CCP4CON3L = 0x308
                    0x0308                  _CCP4CON3Lbits = 0x308
                    0x030a                  CCP4CON3H = 0x30a
                    0x030a                  _CCP4CON3H = 0x30a
                    0x030a                  _CCP4CON3Hbits = 0x30a
                    0x030c                  CCP4STAT = 0x30c
                    0x030c                  _CCP4STAT = 0x30c
                    0x030c                  _CCP4STATbits = 0x30c
                    0x030c                  CCP4STATL = 0x30c
                    0x030c                  _CCP4STATL = 0x30c
                    0x030c                  _CCP4STATLbits = 0x30c
                    0x030e                  CCP4STATH = 0x30e
                    0x030e                  _CCP4STATH = 0x30e
                    0x0310                  CCP4TMRL = 0x310
                    0x0310                  _CCP4TMRL = 0x310
                    0x0312                  CCP4TMRH = 0x312
                    0x0312                  _CCP4TMRH = 0x312
                    0x0314                  CCP4PRL = 0x314
                    0x0314                  _CCP4PRL = 0x314
                    0x0316                  CCP4PRH = 0x316
                    0x0316                  _CCP4PRH = 0x316
                    0x0318                  CCP4RA = 0x318
                    0x0318                  _CCP4RA = 0x318
                    0x0318                  CCP4RAL = 0x318
                    0x0318                  _CCP4RAL = 0x318
                    0x031a                  CCP4RAH = 0x31a
                    0x031a                  _CCP4RAH = 0x31a
                    0x031c                  CCP4RB = 0x31c
                    0x031c                  _CCP4RB = 0x31c
                    0x031c                  CCP4RBL = 0x31c
                    0x031c                  _CCP4RBL = 0x31c
                    0x031e                  CCP4RBH = 0x31e
                    0x031e                  _CCP4RBH = 0x31e
                    0x0320                  CCP4BUFL = 0x320
                    0x0320                  _CCP4BUFL = 0x320
                    0x0322                  CCP4BUFH = 0x322
                    0x0322                  _CCP4BUFH = 0x322
                    0x0324                  CCP5CON1L = 0x324
                    0x0324                  _CCP5CON1L = 0x324
                    0x0324                  _CCP5CON1Lbits = 0x324
                    0x0326                  CCP5CON1H = 0x326
                    0x0326                  _CCP5CON1H = 0x326
                    0x0326                  _CCP5CON1Hbits = 0x326
                    0x0328                  CCP5CON2L = 0x328
                    0x0328                  _CCP5CON2L = 0x328
                    0x0328                  _CCP5CON2Lbits = 0x328
                    0x032a                  CCP5CON2H = 0x32a
                    0x032a                  _CCP5CON2H = 0x32a
                    0x032a                  _CCP5CON2Hbits = 0x32a
                    0x032c                  CCP5CON3L = 0x32c
                    0x032c                  _CCP5CON3L = 0x32c
                    0x032c                  _CCP5CON3Lbits = 0x32c
                    0x032e                  CCP5CON3H = 0x32e
                    0x032e                  _CCP5CON3H = 0x32e
                    0x032e                  _CCP5CON3Hbits = 0x32e
                    0x0330                  CCP5STAT = 0x330
                    0x0330                  _CCP5STAT = 0x330
                    0x0330                  _CCP5STATbits = 0x330
                    0x0330                  CCP5STATL = 0x330
                    0x0330                  _CCP5STATL = 0x330
                    0x0330                  _CCP5STATLbits = 0x330
                    0x0332                  CCP5STATH = 0x332
                    0x0332                  _CCP5STATH = 0x332
                    0x0334                  CCP5TMRL = 0x334
                    0x0334                  _CCP5TMRL = 0x334
                    0x0336                  CCP5TMRH = 0x336
                    0x0336                  _CCP5TMRH = 0x336
                    0x0338                  CCP5PRL = 0x338
                    0x0338                  _CCP5PRL = 0x338
                    0x033a                  CCP5PRH = 0x33a
                    0x033a                  _CCP5PRH = 0x33a
                    0x033c                  CCP5RA = 0x33c
                    0x033c                  _CCP5RA = 0x33c
                    0x033c                  CCP5RAL = 0x33c
                    0x033c                  _CCP5RAL = 0x33c
                    0x033e                  CCP5RAH = 0x33e
                    0x033e                  _CCP5RAH = 0x33e
                    0x0340                  CCP5RB = 0x340
                    0x0340                  _CCP5RB = 0x340
                    0x0340                  CCP5RBL = 0x340
                    0x0340                  _CCP5RBL = 0x340
                    0x0342                  CCP5RBH = 0x342
                    0x0342                  _CCP5RBH = 0x342
                    0x0344                  CCP5BUFL = 0x344
                    0x0344                  _CCP5BUFL = 0x344
                    0x0346                  CCP5BUFH = 0x346
                    0x0346                  _CCP5BUFH = 0x346
                    0x0348                  CCP6CON1L = 0x348
                    0x0348                  _CCP6CON1L = 0x348
                    0x0348                  _CCP6CON1Lbits = 0x348
                    0x034a                  CCP6CON1H = 0x34a
                    0x034a                  _CCP6CON1H = 0x34a
                    0x034a                  _CCP6CON1Hbits = 0x34a
                    0x034c                  CCP6CON2L = 0x34c
                    0x034c                  _CCP6CON2L = 0x34c
                    0x034c                  _CCP6CON2Lbits = 0x34c
                    0x034e                  CCP6CON2H = 0x34e
                    0x034e                  _CCP6CON2H = 0x34e
                    0x034e                  _CCP6CON2Hbits = 0x34e
                    0x0350                  CCP6CON3L = 0x350
                    0x0350                  _CCP6CON3L = 0x350
                    0x0350                  _CCP6CON3Lbits = 0x350
                    0x0352                  CCP6CON3H = 0x352
                    0x0352                  _CCP6CON3H = 0x352
                    0x0352                  _CCP6CON3Hbits = 0x352
                    0x0354                  CCP6STAT = 0x354
                    0x0354                  _CCP6STAT = 0x354
                    0x0354                  _CCP6STATbits = 0x354
                    0x0354                  CCP6STATL = 0x354
                    0x0354                  _CCP6STATL = 0x354
                    0x0354                  _CCP6STATLbits = 0x354
                    0x0356                  CCP6STATH = 0x356
                    0x0356                  _CCP6STATH = 0x356
                    0x0358                  CCP6TMRL = 0x358
                    0x0358                  _CCP6TMRL = 0x358
                    0x035a                  CCP6TMRH = 0x35a
                    0x035a                  _CCP6TMRH = 0x35a
                    0x035c                  CCP6PRL = 0x35c
                    0x035c                  _CCP6PRL = 0x35c
                    0x035e                  CCP6PRH = 0x35e
                    0x035e                  _CCP6PRH = 0x35e
                    0x0360                  CCP6RA = 0x360
                    0x0360                  _CCP6RA = 0x360
                    0x0360                  CCP6RAL = 0x360
                    0x0360                  _CCP6RAL = 0x360
                    0x0362                  CCP6RAH = 0x362
                    0x0362                  _CCP6RAH = 0x362
                    0x0364                  CCP6RB = 0x364
                    0x0364                  _CCP6RB = 0x364
                    0x0364                  CCP6RBL = 0x364
                    0x0364                  _CCP6RBL = 0x364
                    0x0366                  CCP6RBH = 0x366
                    0x0366                  _CCP6RBH = 0x366
                    0x0368                  CCP6BUFL = 0x368
                    0x0368                  _CCP6BUFL = 0x368
                    0x036a                  CCP6BUFH = 0x36a
                    0x036a                  _CCP6BUFH = 0x36a
                    0x036c                  CCP7CON1L = 0x36c
                    0x036c                  _CCP7CON1L = 0x36c
                    0x036c                  _CCP7CON1Lbits = 0x36c
                    0x036e                  CCP7CON1H = 0x36e
                    0x036e                  _CCP7CON1H = 0x36e
                    0x036e                  _CCP7CON1Hbits = 0x36e
                    0x0370                  CCP7CON2L = 0x370
                    0x0370                  _CCP7CON2L = 0x370
                    0x0370                  _CCP7CON2Lbits = 0x370
                    0x0372                  CCP7CON2H = 0x372
                    0x0372                  _CCP7CON2H = 0x372
                    0x0372                  _CCP7CON2Hbits = 0x372
                    0x0374                  CCP7CON3L = 0x374
                    0x0374                  _CCP7CON3L = 0x374
                    0x0374                  _CCP7CON3Lbits = 0x374
                    0x0376                  CCP7CON3H = 0x376
                    0x0376                  _CCP7CON3H = 0x376
                    0x0376                  _CCP7CON3Hbits = 0x376
                    0x0378                  CCP7STAT = 0x378
                    0x0378                  _CCP7STAT = 0x378
                    0x0378                  _CCP7STATbits = 0x378
                    0x0378                  CCP7STATL = 0x378
                    0x0378                  _CCP7STATL = 0x378
                    0x0378                  _CCP7STATLbits = 0x378
                    0x037a                  CCP7STATH = 0x37a
                    0x037a                  _CCP7STATH = 0x37a
                    0x037c                  CCP7TMRL = 0x37c
                    0x037c                  _CCP7TMRL = 0x37c
                    0x037e                  CCP7TMRH = 0x37e
                    0x037e                  _CCP7TMRH = 0x37e
                    0x0380                  CCP7PRL = 0x380
                    0x0380                  _CCP7PRL = 0x380
                    0x0382                  CCP7PRH = 0x382
                    0x0382                  _CCP7PRH = 0x382
                    0x0384                  CCP7RA = 0x384
                    0x0384                  _CCP7RA = 0x384
                    0x0384                  CCP7RAL = 0x384
                    0x0384                  _CCP7RAL = 0x384
                    0x0386                  CCP7RAH = 0x386
                    0x0386                  _CCP7RAH = 0x386
                    0x0388                  CCP7RB = 0x388
                    0x0388                  _CCP7RB = 0x388
                    0x0388                  CCP7RBL = 0x388
                    0x0388                  _CCP7RBL = 0x388
                    0x038a                  CCP7RBH = 0x38a
                    0x038a                  _CCP7RBH = 0x38a
                    0x038c                  CCP7BUFL = 0x38c
                    0x038c                  _CCP7BUFL = 0x38c
                    0x038e                  CCP7BUFH = 0x38e
                    0x038e                  _CCP7BUFH = 0x38e
                    0x0398                  U1MODE = 0x398
                    0x0398                  _U1MODE = 0x398
                    0x0398                  _U1MODEbits = 0x398
                    0x039a                  U1STA = 0x39a
                    0x039a                  _U1STA = 0x39a
                    0x039a                  _U1STAbits = 0x39a
                    0x039c                  U1TXREG = 0x39c
                    0x039c                  _U1TXREG = 0x39c
                    0x039e                  U1RXREG = 0x39e
                    0x039e                  _U1RXREG = 0x39e
                    0x03a0                  U1BRG = 0x3a0
                    0x03a0                  _U1BRG = 0x3a0
                    0x03ae                  U2MODE = 0x3ae
                    0x03ae                  _U2MODE = 0x3ae
                    0x03ae                  _U2MODEbits = 0x3ae
                    0x03b0                  U2STA = 0x3b0
                    0x03b0                  _U2STA = 0x3b0
                    0x03b0                  _U2STAbits = 0x3b0
                    0x03b2                  U2TXREG = 0x3b2
                    0x03b2                  _U2TXREG = 0x3b2
                    0x03b4                  U2RXREG = 0x3b4
                    0x03b4                  _U2RXREG = 0x3b4
                    0x03b6                  U2BRG = 0x3b6
                    0x03b6                  _U2BRG = 0x3b6
                    0x03c4                  U3MODE = 0x3c4
                    0x03c4                  _U3MODE = 0x3c4
                    0x03c4                  _U3MODEbits = 0x3c4
                    0x03c6                  U3STA = 0x3c6
                    0x03c6                  _U3STA = 0x3c6
                    0x03c6                  _U3STAbits = 0x3c6
                    0x03c8                  U3TXREG = 0x3c8
                    0x03c8                  _U3TXREG = 0x3c8
                    0x03ca                  U3RXREG = 0x3ca
                    0x03ca                  _U3RXREG = 0x3ca
                    0x03cc                  U3BRG = 0x3cc
                    0x03cc                  _U3BRG = 0x3cc
                    0x03d0                  U4MODE = 0x3d0
                    0x03d0                  _U4MODE = 0x3d0
                    0x03d0                  _U4MODEbits = 0x3d0
                    0x03d2                  U4STA = 0x3d2
                    0x03d2                  _U4STA = 0x3d2
                    0x03d2                  _U4STAbits = 0x3d2
                    0x03d4                  U4TXREG = 0x3d4
                    0x03d4                  _U4TXREG = 0x3d4
                    0x03d6                  U4RXREG = 0x3d6
                    0x03d6                  _U4RXREG = 0x3d6
                    0x03d8                  U4BRG = 0x3d8
                    0x03d8                  _U4BRG = 0x3d8
                    0x03dc                  U5MODE = 0x3dc
                    0x03dc                  _U5MODE = 0x3dc
                    0x03dc                  _U5MODEbits = 0x3dc
                    0x03de                  U5STA = 0x3de
                    0x03de                  _U5STA = 0x3de
                    0x03de                  _U5STAbits = 0x3de
                    0x03e0                  U5TXREG = 0x3e0
                    0x03e0                  _U5TXREG = 0x3e0
                    0x03e2                  U5RXREG = 0x3e2
                    0x03e2                  _U5RXREG = 0x3e2
                    0x03e4                  U5BRG = 0x3e4
                    0x03e4                  _U5BRG = 0x3e4
                    0x03e8                  U6MODE = 0x3e8
                    0x03e8                  _U6MODE = 0x3e8
                    0x03e8                  _U6MODEbits = 0x3e8
                    0x03ea                  U6STA = 0x3ea
                    0x03ea                  _U6STA = 0x3ea
                    0x03ea                  _U6STAbits = 0x3ea
                    0x03ec                  U6TXREG = 0x3ec
                    0x03ec                  _U6TXREG = 0x3ec
                    0x03ee                  U6RXREG = 0x3ee
                    0x03ee                  _U6RXREG = 0x3ee
                    0x03f0                  U6BRG = 0x3f0
                    0x03f0                  _U6BRG = 0x3f0
                    0x03f4                  SPI1CON1 = 0x3f4
                    0x03f4                  _SPI1CON1 = 0x3f4
                    0x03f4                  _SPI1CON1bits = 0x3f4
                    0x03f4                  SPI1CON1L = 0x3f4
                    0x03f4                  _SPI1CON1L = 0x3f4
                    0x03f4                  _SPI1CON1Lbits = 0x3f4
                    0x03f6                  SPI1CON1H = 0x3f6
                    0x03f6                  _SPI1CON1H = 0x3f6
                    0x03f6                  _SPI1CON1Hbits = 0x3f6
                    0x03f6                  SPI1CON2 = 0x3f6
                    0x03f6                  _SPI1CON2 = 0x3f6
                    0x03f6                  _SPI1CON2bits = 0x3f6
                    0x03f8                  SPI1CON2L = 0x3f8
                    0x03f8                  _SPI1CON2L = 0x3f8
                    0x03f8                  _SPI1CON2Lbits = 0x3f8
                    0x03f8                  SPI1CON3 = 0x3f8
                    0x03f8                  _SPI1CON3 = 0x3f8
                    0x03f8                  _SPI1CON3bits = 0x3f8
                    0x03fc                  SPI1STATL = 0x3fc
                    0x03fc                  _SPI1STATL = 0x3fc
                    0x03fc                  _SPI1STATLbits = 0x3fc
                    0x03fe                  SPI1STATH = 0x3fe
                    0x03fe                  _SPI1STATH = 0x3fe
                    0x03fe                  _SPI1STATHbits = 0x3fe
                    0x0400                  SPI1BUFL = 0x400
                    0x0400                  _SPI1BUFL = 0x400
                    0x0400                  _SPI1BUFLbits = 0x400
                    0x0402                  SPI1BUFH = 0x402
                    0x0402                  _SPI1BUFH = 0x402
                    0x0402                  _SPI1BUFHbits = 0x402
                    0x0404                  SPI1BRGL = 0x404
                    0x0404                  _SPI1BRGL = 0x404
                    0x0404                  _SPI1BRGLbits = 0x404
                    0x0408                  SPI1IMSK1 = 0x408
                    0x0408                  _SPI1IMSK1 = 0x408
                    0x0408                  _SPI1IMSK1bits = 0x408
                    0x0408                  SPI1IMSKL = 0x408
                    0x0408                  _SPI1IMSKL = 0x408
                    0x0408                  _SPI1IMSKLbits = 0x408
                    0x040a                  SPI1IMSK2 = 0x40a
                    0x040a                  _SPI1IMSK2 = 0x40a
                    0x040a                  _SPI1IMSK2bits = 0x40a
                    0x040a                  SPI1IMSKH = 0x40a
                    0x040a                  _SPI1IMSKH = 0x40a
                    0x040a                  _SPI1IMSKHbits = 0x40a
                    0x040c                  SPI1URDTL = 0x40c
                    0x040c                  _SPI1URDTL = 0x40c
                    0x040c                  _SPI1URDTLbits = 0x40c
                    0x040e                  SPI1URDTH = 0x40e
                    0x040e                  _SPI1URDTH = 0x40e
                    0x040e                  _SPI1URDTHbits = 0x40e
                    0x0410                  SPI2CON1 = 0x410
                    0x0410                  _SPI2CON1 = 0x410
                    0x0410                  _SPI2CON1bits = 0x410
                    0x0410                  SPI2CON1L = 0x410
                    0x0410                  _SPI2CON1L = 0x410
                    0x0410                  _SPI2CON1Lbits = 0x410
                    0x0412                  SPI2CON1H = 0x412
                    0x0412                  _SPI2CON1H = 0x412
                    0x0412                  _SPI2CON1Hbits = 0x412
                    0x0412                  SPI2CON2 = 0x412
                    0x0412                  _SPI2CON2 = 0x412
                    0x0412                  _SPI2CON2bits = 0x412
                    0x0414                  SPI2CON2L = 0x414
                    0x0414                  _SPI2CON2L = 0x414
                    0x0414                  _SPI2CON2Lbits = 0x414
                    0x0414                  SPI2CON3 = 0x414
                    0x0414                  _SPI2CON3 = 0x414
                    0x0414                  _SPI2CON3bits = 0x414
                    0x0418                  SPI2STATL = 0x418
                    0x0418                  _SPI2STATL = 0x418
                    0x0418                  _SPI2STATLbits = 0x418
                    0x041a                  SPI2STATH = 0x41a
                    0x041a                  _SPI2STATH = 0x41a
                    0x041a                  _SPI2STATHbits = 0x41a
                    0x041c                  SPI2BUFL = 0x41c
                    0x041c                  _SPI2BUFL = 0x41c
                    0x041c                  _SPI2BUFLbits = 0x41c
                    0x041e                  SPI2BUFH = 0x41e
                    0x041e                  _SPI2BUFH = 0x41e
                    0x041e                  _SPI2BUFHbits = 0x41e
                    0x0420                  SPI2BRGL = 0x420
                    0x0420                  _SPI2BRGL = 0x420
                    0x0420                  _SPI2BRGLbits = 0x420
                    0x0424                  SPI2IMSK1 = 0x424
                    0x0424                  _SPI2IMSK1 = 0x424
                    0x0424                  _SPI2IMSK1bits = 0x424
                    0x0424                  SPI2IMSKL = 0x424
                    0x0424                  _SPI2IMSKL = 0x424
                    0x0424                  _SPI2IMSKLbits = 0x424
                    0x0426                  SPI2IMSK2 = 0x426
                    0x0426                  _SPI2IMSK2 = 0x426
                    0x0426                  _SPI2IMSK2bits = 0x426
                    0x0426                  SPI2IMSKH = 0x426
                    0x0426                  _SPI2IMSKH = 0x426
                    0x0426                  _SPI2IMSKHbits = 0x426
                    0x0428                  SPI2URDTL = 0x428
                    0x0428                  _SPI2URDTL = 0x428
                    0x0428                  _SPI2URDTLbits = 0x428
                    0x042a                  SPI2URDTH = 0x42a
                    0x042a                  _SPI2URDTH = 0x42a
                    0x042a                  _SPI2URDTHbits = 0x42a
                    0x042c                  SPI3CON1 = 0x42c
                    0x042c                  _SPI3CON1 = 0x42c
                    0x042c                  _SPI3CON1bits = 0x42c
                    0x042c                  SPI3CON1L = 0x42c
                    0x042c                  _SPI3CON1L = 0x42c
                    0x042c                  _SPI3CON1Lbits = 0x42c
                    0x042e                  SPI3CON1H = 0x42e
                    0x042e                  _SPI3CON1H = 0x42e
                    0x042e                  _SPI3CON1Hbits = 0x42e
                    0x042e                  SPI3CON2 = 0x42e
                    0x042e                  _SPI3CON2 = 0x42e
                    0x042e                  _SPI3CON2bits = 0x42e
                    0x0430                  SPI3CON2L = 0x430
                    0x0430                  _SPI3CON2L = 0x430
                    0x0430                  _SPI3CON2Lbits = 0x430
                    0x0430                  SPI3CON3 = 0x430
                    0x0430                  _SPI3CON3 = 0x430
                    0x0430                  _SPI3CON3bits = 0x430
                    0x0434                  SPI3STATL = 0x434
                    0x0434                  _SPI3STATL = 0x434
                    0x0434                  _SPI3STATLbits = 0x434
                    0x0436                  SPI3STATH = 0x436
                    0x0436                  _SPI3STATH = 0x436
                    0x0436                  _SPI3STATHbits = 0x436
                    0x0438                  SPI3BUFL = 0x438
                    0x0438                  _SPI3BUFL = 0x438
                    0x0438                  _SPI3BUFLbits = 0x438
                    0x043a                  SPI3BUFH = 0x43a
                    0x043a                  _SPI3BUFH = 0x43a
                    0x043a                  _SPI3BUFHbits = 0x43a
                    0x043c                  SPI3BRGL = 0x43c
                    0x043c                  _SPI3BRGL = 0x43c
                    0x043c                  _SPI3BRGLbits = 0x43c
                    0x0440                  SPI3IMSK1 = 0x440
                    0x0440                  _SPI3IMSK1 = 0x440
                    0x0440                  _SPI3IMSK1bits = 0x440
                    0x0440                  SPI3IMSKL = 0x440
                    0x0440                  _SPI3IMSKL = 0x440
                    0x0440                  _SPI3IMSKLbits = 0x440
                    0x0442                  SPI3IMSK2 = 0x442
                    0x0442                  _SPI3IMSK2 = 0x442
                    0x0442                  _SPI3IMSK2bits = 0x442
                    0x0442                  SPI3IMSKH = 0x442
                    0x0442                  _SPI3IMSKH = 0x442
                    0x0442                  _SPI3IMSKHbits = 0x442
                    0x0444                  SPI3URDTL = 0x444
                    0x0444                  _SPI3URDTL = 0x444
                    0x0444                  _SPI3URDTLbits = 0x444
                    0x0446                  SPI3URDTH = 0x446
                    0x0446                  _SPI3URDTH = 0x446
                    0x0446                  _SPI3URDTHbits = 0x446
                    0x0448                  SPI4CON1 = 0x448
                    0x0448                  _SPI4CON1 = 0x448
                    0x0448                  _SPI4CON1bits = 0x448
                    0x0448                  SPI4CON1L = 0x448
                    0x0448                  _SPI4CON1L = 0x448
                    0x0448                  _SPI4CON1Lbits = 0x448
                    0x044a                  SPI4CON1H = 0x44a
                    0x044a                  _SPI4CON1H = 0x44a
                    0x044a                  _SPI4CON1Hbits = 0x44a
                    0x044a                  SPI4CON2 = 0x44a
                    0x044a                  _SPI4CON2 = 0x44a
                    0x044a                  _SPI4CON2bits = 0x44a
                    0x044c                  SPI4CON2L = 0x44c
                    0x044c                  _SPI4CON2L = 0x44c
                    0x044c                  _SPI4CON2Lbits = 0x44c
                    0x044c                  SPI4CON3 = 0x44c
                    0x044c                  _SPI4CON3 = 0x44c
                    0x044c                  _SPI4CON3bits = 0x44c
                    0x0450                  SPI4STATL = 0x450
                    0x0450                  _SPI4STATL = 0x450
                    0x0450                  _SPI4STATLbits = 0x450
                    0x0452                  SPI4STATH = 0x452
                    0x0452                  _SPI4STATH = 0x452
                    0x0452                  _SPI4STATHbits = 0x452
                    0x0454                  SPI4BUFL = 0x454
                    0x0454                  _SPI4BUFL = 0x454
                    0x0454                  _SPI4BUFLbits = 0x454
                    0x0456                  SPI4BUFH = 0x456
                    0x0456                  _SPI4BUFH = 0x456
                    0x0456                  _SPI4BUFHbits = 0x456
                    0x0458                  SPI4BRGL = 0x458
                    0x0458                  _SPI4BRGL = 0x458
                    0x0458                  _SPI4BRGLbits = 0x458
                    0x045c                  SPI4IMSK1 = 0x45c
                    0x045c                  _SPI4IMSK1 = 0x45c
                    0x045c                  _SPI4IMSK1bits = 0x45c
                    0x045c                  SPI4IMSKL = 0x45c
                    0x045c                  _SPI4IMSKL = 0x45c
                    0x045c                  _SPI4IMSKLbits = 0x45c
                    0x045e                  SPI4IMSK2 = 0x45e
                    0x045e                  _SPI4IMSK2 = 0x45e
                    0x045e                  _SPI4IMSK2bits = 0x45e
                    0x045e                  SPI4IMSKH = 0x45e
                    0x045e                  _SPI4IMSKH = 0x45e
                    0x045e                  _SPI4IMSKHbits = 0x45e
                    0x0460                  SPI4URDTL = 0x460
                    0x0460                  _SPI4URDTL = 0x460
                    0x0460                  _SPI4URDTLbits = 0x460
                    0x0462                  SPI4URDTH = 0x462
                    0x0462                  _SPI4URDTH = 0x462
                    0x0462                  _SPI4URDTHbits = 0x462
                    0x0464                  CLC1CONL = 0x464
                    0x0464                  _CLC1CONL = 0x464
                    0x0464                  _CLC1CONLbits = 0x464
                    0x0466                  CLC1CONH = 0x466
                    0x0466                  _CLC1CONH = 0x466
                    0x0466                  _CLC1CONHbits = 0x466
                    0x0468                  CLC1SEL = 0x468
                    0x0468                  _CLC1SEL = 0x468
                    0x0468                  _CLC1SELbits = 0x468
                    0x0468                  CLC1SELL = 0x468
                    0x0468                  _CLC1SELL = 0x468
                    0x0468                  _CLC1SELLbits = 0x468
                    0x046c                  CLC1GLSL = 0x46c
                    0x046c                  _CLC1GLSL = 0x46c
                    0x046c                  _CLC1GLSLbits = 0x46c
                    0x046e                  CLC1GLSH = 0x46e
                    0x046e                  _CLC1GLSH = 0x46e
                    0x046e                  _CLC1GLSHbits = 0x46e
                    0x0470                  CLC2CONL = 0x470
                    0x0470                  _CLC2CONL = 0x470
                    0x0470                  _CLC2CONLbits = 0x470
                    0x0472                  CLC2CONH = 0x472
                    0x0472                  _CLC2CONH = 0x472
                    0x0472                  _CLC2CONHbits = 0x472
                    0x0474                  CLC2SEL = 0x474
                    0x0474                  _CLC2SEL = 0x474
                    0x0474                  _CLC2SELbits = 0x474
                    0x0474                  CLC2SELL = 0x474
                    0x0474                  _CLC2SELL = 0x474
                    0x0474                  _CLC2SELLbits = 0x474
                    0x0478                  CLC2GLSL = 0x478
                    0x0478                  _CLC2GLSL = 0x478
                    0x0478                  _CLC2GLSLbits = 0x478
                    0x047a                  CLC2GLSH = 0x47a
                    0x047a                  _CLC2GLSH = 0x47a
                    0x047a                  _CLC2GLSHbits = 0x47a
                    0x047c                  CLC3CONL = 0x47c
                    0x047c                  _CLC3CONL = 0x47c
                    0x047c                  _CLC3CONLbits = 0x47c
                    0x047e                  CLC3CONH = 0x47e
                    0x047e                  _CLC3CONH = 0x47e
                    0x047e                  _CLC3CONHbits = 0x47e
                    0x0480                  CLC3SEL = 0x480
                    0x0480                  _CLC3SEL = 0x480
                    0x0480                  _CLC3SELbits = 0x480
                    0x0480                  CLC3SELL = 0x480
                    0x0480                  _CLC3SELL = 0x480
                    0x0480                  _CLC3SELLbits = 0x480
                    0x0484                  CLC3GLSL = 0x484
                    0x0484                  _CLC3GLSL = 0x484
                    0x0484                  _CLC3GLSLbits = 0x484
                    0x0486                  CLC3GLSH = 0x486
                    0x0486                  _CLC3GLSH = 0x486
                    0x0486                  _CLC3GLSHbits = 0x486
                    0x0488                  CLC4CONL = 0x488
                    0x0488                  _CLC4CONL = 0x488
                    0x0488                  _CLC4CONLbits = 0x488
                    0x048a                  CLC4CONH = 0x48a
                    0x048a                  _CLC4CONH = 0x48a
                    0x048a                  _CLC4CONHbits = 0x48a
                    0x048c                  CLC4SEL = 0x48c
                    0x048c                  _CLC4SEL = 0x48c
                    0x048c                  _CLC4SELbits = 0x48c
                    0x048c                  CLC4SELL = 0x48c
                    0x048c                  _CLC4SELL = 0x48c
                    0x048c                  _CLC4SELLbits = 0x48c
                    0x0490                  CLC4GLSL = 0x490
                    0x0490                  _CLC4GLSL = 0x490
                    0x0490                  _CLC4GLSLbits = 0x490
                    0x0492                  CLC4GLSH = 0x492
                    0x0492                  _CLC4GLSH = 0x492
                    0x0492                  _CLC4GLSHbits = 0x492
                    0x0494                  I2C1RCV = 0x494
                    0x0494                  _I2C1RCV = 0x494
                    0x0494                  _I2C1RCVbits = 0x494
                    0x0496                  I2C1TRN = 0x496
                    0x0496                  _I2C1TRN = 0x496
                    0x0496                  _I2C1TRNbits = 0x496
                    0x0498                  I2C1BRG = 0x498
                    0x0498                  _I2C1BRG = 0x498
                    0x049a                  I2C1CON1 = 0x49a
                    0x049a                  _I2C1CON1 = 0x49a
                    0x049a                  _I2C1CON1bits = 0x49a
                    0x049a                  I2C1CONL = 0x49a
                    0x049a                  _I2C1CONL = 0x49a
                    0x049a                  _I2C1CONLbits = 0x49a
                    0x049c                  I2C1CON2 = 0x49c
                    0x049c                  _I2C1CON2 = 0x49c
                    0x049c                  _I2C1CON2bits = 0x49c
                    0x049c                  I2C1CONH = 0x49c
                    0x049c                  _I2C1CONH = 0x49c
                    0x049c                  _I2C1CONHbits = 0x49c
                    0x049e                  I2C1STAT = 0x49e
                    0x049e                  _I2C1STAT = 0x49e
                    0x049e                  _I2C1STATbits = 0x49e
                    0x04a0                  I2C1ADD = 0x4a0
                    0x04a0                  _I2C1ADD = 0x4a0
                    0x04a0                  _I2C1ADDbits = 0x4a0
                    0x04a2                  I2C1MSK = 0x4a2
                    0x04a2                  _I2C1MSK = 0x4a2
                    0x04a2                  _I2C1MSKbits = 0x4a2
                    0x04a4                  I2C2RCV = 0x4a4
                    0x04a4                  _I2C2RCV = 0x4a4
                    0x04a4                  _I2C2RCVbits = 0x4a4
                    0x04a6                  I2C2TRN = 0x4a6
                    0x04a6                  _I2C2TRN = 0x4a6
                    0x04a6                  _I2C2TRNbits = 0x4a6
                    0x04a8                  I2C2BRG = 0x4a8
                    0x04a8                  _I2C2BRG = 0x4a8
                    0x04aa                  I2C2CON1 = 0x4aa
                    0x04aa                  _I2C2CON1 = 0x4aa
                    0x04aa                  _I2C2CON1bits = 0x4aa
                    0x04aa                  I2C2CONL = 0x4aa
                    0x04aa                  _I2C2CONL = 0x4aa
                    0x04aa                  _I2C2CONLbits = 0x4aa
                    0x04ac                  I2C2CON2 = 0x4ac
                    0x04ac                  _I2C2CON2 = 0x4ac
                    0x04ac                  _I2C2CON2bits = 0x4ac
                    0x04ac                  I2C2CONH = 0x4ac
                    0x04ac                  _I2C2CONH = 0x4ac
                    0x04ac                  _I2C2CONHbits = 0x4ac
                    0x04ae                  I2C2STAT = 0x4ae
                    0x04ae                  _I2C2STAT = 0x4ae
                    0x04ae                  _I2C2STATbits = 0x4ae
                    0x04b0                  I2C2ADD = 0x4b0
                    0x04b0                  _I2C2ADD = 0x4b0
                    0x04b0                  _I2C2ADDbits = 0x4b0
                    0x04b2                  I2C2MSK = 0x4b2
                    0x04b2                  _I2C2MSK = 0x4b2
                    0x04b2                  _I2C2MSKbits = 0x4b2
                    0x04b4                  I2C3RCV = 0x4b4
                    0x04b4                  _I2C3RCV = 0x4b4
                    0x04b4                  _I2C3RCVbits = 0x4b4
                    0x04b6                  I2C3TRN = 0x4b6
                    0x04b6                  _I2C3TRN = 0x4b6
                    0x04b6                  _I2C3TRNbits = 0x4b6
                    0x04b8                  I2C3BRG = 0x4b8
                    0x04b8                  _I2C3BRG = 0x4b8
                    0x04ba                  I2C3CON1 = 0x4ba
                    0x04ba                  _I2C3CON1 = 0x4ba
                    0x04ba                  _I2C3CON1bits = 0x4ba
                    0x04ba                  I2C3CONL = 0x4ba
                    0x04ba                  _I2C3CONL = 0x4ba
                    0x04ba                  _I2C3CONLbits = 0x4ba
                    0x04bc                  I2C3CON2 = 0x4bc
                    0x04bc                  _I2C3CON2 = 0x4bc
                    0x04bc                  _I2C3CON2bits = 0x4bc
                    0x04bc                  I2C3CONH = 0x4bc
                    0x04bc                  _I2C3CONH = 0x4bc
                    0x04bc                  _I2C3CONHbits = 0x4bc
                    0x04be                  I2C3STAT = 0x4be
                    0x04be                  _I2C3STAT = 0x4be
                    0x04be                  _I2C3STATbits = 0x4be
                    0x04c0                  I2C3ADD = 0x4c0
                    0x04c0                  _I2C3ADD = 0x4c0
                    0x04c0                  _I2C3ADDbits = 0x4c0
                    0x04c2                  I2C3MSK = 0x4c2
                    0x04c2                  _I2C3MSK = 0x4c2
                    0x04c2                  _I2C3MSKbits = 0x4c2
                    0x04c4                  DMACON = 0x4c4
                    0x04c4                  _DMACON = 0x4c4
                    0x04c4                  _DMACONbits = 0x4c4
                    0x04c6                  DMABUF = 0x4c6
                    0x04c6                  _DMABUF = 0x4c6
                    0x04c8                  DMAL = 0x4c8
                    0x04c8                  _DMAL = 0x4c8
                    0x04ca                  DMAH = 0x4ca
                    0x04ca                  _DMAH = 0x4ca
                    0x04cc                  DMACH0 = 0x4cc
                    0x04cc                  _DMACH0 = 0x4cc
                    0x04cc                  _DMACH0bits = 0x4cc
                    0x04ce                  DMAINT0 = 0x4ce
                    0x04ce                  _DMAINT0 = 0x4ce
                    0x04ce                  _DMAINT0bits = 0x4ce
                    0x04d0                  DMASRC0 = 0x4d0
                    0x04d0                  _DMASRC0 = 0x4d0
                    0x04d2                  DMADST0 = 0x4d2
                    0x04d2                  _DMADST0 = 0x4d2
                    0x04d4                  DMACNT0 = 0x4d4
                    0x04d4                  _DMACNT0 = 0x4d4
                    0x04d6                  DMACH1 = 0x4d6
                    0x04d6                  _DMACH1 = 0x4d6
                    0x04d6                  _DMACH1bits = 0x4d6
                    0x04d8                  DMAINT1 = 0x4d8
                    0x04d8                  _DMAINT1 = 0x4d8
                    0x04d8                  _DMAINT1bits = 0x4d8
                    0x04da                  DMASRC1 = 0x4da
                    0x04da                  _DMASRC1 = 0x4da
                    0x04dc                  DMADST1 = 0x4dc
                    0x04dc                  _DMADST1 = 0x4dc
                    0x04de                  DMACNT1 = 0x4de
                    0x04de                  _DMACNT1 = 0x4de
                    0x04e0                  DMACH2 = 0x4e0
                    0x04e0                  _DMACH2 = 0x4e0
                    0x04e0                  _DMACH2bits = 0x4e0
                    0x04e2                  DMAINT2 = 0x4e2
                    0x04e2                  _DMAINT2 = 0x4e2
                    0x04e2                  _DMAINT2bits = 0x4e2
                    0x04e4                  DMASRC2 = 0x4e4
                    0x04e4                  _DMASRC2 = 0x4e4
                    0x04e6                  DMADST2 = 0x4e6
                    0x04e6                  _DMADST2 = 0x4e6
                    0x04e8                  DMACNT2 = 0x4e8
                    0x04e8                  _DMACNT2 = 0x4e8
                    0x04ea                  DMACH3 = 0x4ea
                    0x04ea                  _DMACH3 = 0x4ea
                    0x04ea                  _DMACH3bits = 0x4ea
                    0x04ec                  DMAINT3 = 0x4ec
                    0x04ec                  _DMAINT3 = 0x4ec
                    0x04ec                  _DMAINT3bits = 0x4ec
                    0x04ee                  DMASRC3 = 0x4ee
                    0x04ee                  _DMASRC3 = 0x4ee
                    0x04f0                  DMADST3 = 0x4f0
                    0x04f0                  _DMADST3 = 0x4f0
                    0x04f2                  DMACNT3 = 0x4f2
                    0x04f2                  _DMACNT3 = 0x4f2
                    0x04f4                  DMACH4 = 0x4f4
                    0x04f4                  _DMACH4 = 0x4f4
                    0x04f4                  _DMACH4bits = 0x4f4
                    0x04f6                  DMAINT4 = 0x4f6
                    0x04f6                  _DMAINT4 = 0x4f6
                    0x04f6                  _DMAINT4bits = 0x4f6
                    0x04f8                  DMASRC4 = 0x4f8
                    0x04f8                  _DMASRC4 = 0x4f8
                    0x04fa                  DMADST4 = 0x4fa
                    0x04fa                  _DMADST4 = 0x4fa
                    0x04fc                  DMACNT4 = 0x4fc
                    0x04fc                  _DMACNT4 = 0x4fc
                    0x04fe                  DMACH5 = 0x4fe
                    0x04fe                  _DMACH5 = 0x4fe
                    0x04fe                  _DMACH5bits = 0x4fe
                    0x0500                  DMAINT5 = 0x500
                    0x0500                  _DMAINT5 = 0x500
                    0x0500                  _DMAINT5bits = 0x500
                    0x0502                  DMASRC5 = 0x502
                    0x0502                  _DMASRC5 = 0x502
                    0x0504                  DMADST5 = 0x504
                    0x0504                  _DMADST5 = 0x504
                    0x0506                  DMACNT5 = 0x506
                    0x0506                  _DMACNT5 = 0x506
                    0x0540                  LCDCON = 0x540
                    0x0540                  _LCDCON = 0x540
                    0x0540                  _LCDCONbits = 0x540
                    0x0542                  LCDREF = 0x542
                    0x0542                  _LCDREF = 0x542
                    0x0542                  _LCDREFbits = 0x542
                    0x0544                  LCDPS = 0x544
                    0x0544                  _LCDPS = 0x544
                    0x0544                  _LCDPSbits = 0x544
                    0x0546                  LCDDATA0 = 0x546
                    0x0546                  _LCDDATA0 = 0x546
                    0x0546                  _LCDDATA0bits = 0x546
                    0x0548                  LCDDATA1 = 0x548
                    0x0548                  _LCDDATA1 = 0x548
                    0x0548                  _LCDDATA1bits = 0x548
                    0x054a                  LCDDATA2 = 0x54a
                    0x054a                  _LCDDATA2 = 0x54a
                    0x054a                  _LCDDATA2bits = 0x54a
                    0x054c                  LCDDATA3 = 0x54c
                    0x054c                  _LCDDATA3 = 0x54c
                    0x054c                  _LCDDATA3bits = 0x54c
                    0x054e                  LCDDATA4 = 0x54e
                    0x054e                  _LCDDATA4 = 0x54e
                    0x054e                  _LCDDATA4bits = 0x54e
                    0x0550                  LCDDATA5 = 0x550
                    0x0550                  _LCDDATA5 = 0x550
                    0x0550                  _LCDDATA5bits = 0x550
                    0x0552                  LCDDATA6 = 0x552
                    0x0552                  _LCDDATA6 = 0x552
                    0x0552                  _LCDDATA6bits = 0x552
                    0x0554                  LCDDATA7 = 0x554
                    0x0554                  _LCDDATA7 = 0x554
                    0x0554                  _LCDDATA7bits = 0x554
                    0x0556                  LCDDATA8 = 0x556
                    0x0556                  _LCDDATA8 = 0x556
                    0x0556                  _LCDDATA8bits = 0x556
                    0x0558                  LCDDATA9 = 0x558
                    0x0558                  _LCDDATA9 = 0x558
                    0x0558                  _LCDDATA9bits = 0x558
                    0x055a                  LCDDATA10 = 0x55a
                    0x055a                  _LCDDATA10 = 0x55a
                    0x055a                  _LCDDATA10bits = 0x55a
                    0x055c                  LCDDATA11 = 0x55c
                    0x055c                  _LCDDATA11 = 0x55c
                    0x055c                  _LCDDATA11bits = 0x55c
                    0x055e                  LCDDATA12 = 0x55e
                    0x055e                  _LCDDATA12 = 0x55e
                    0x055e                  _LCDDATA12bits = 0x55e
                    0x0560                  LCDDATA13 = 0x560
                    0x0560                  _LCDDATA13 = 0x560
                    0x0560                  _LCDDATA13bits = 0x560
                    0x0562                  LCDDATA14 = 0x562
                    0x0562                  _LCDDATA14 = 0x562
                    0x0562                  _LCDDATA14bits = 0x562
                    0x0564                  LCDDATA15 = 0x564
                    0x0564                  _LCDDATA15 = 0x564
                    0x0564                  _LCDDATA15bits = 0x564
                    0x0566                  LCDDATA16 = 0x566
                    0x0566                  _LCDDATA16 = 0x566
                    0x0566                  _LCDDATA16bits = 0x566
                    0x0568                  LCDDATA17 = 0x568
                    0x0568                  _LCDDATA17 = 0x568
                    0x0568                  _LCDDATA17bits = 0x568
                    0x056a                  LCDDATA18 = 0x56a
                    0x056a                  _LCDDATA18 = 0x56a
                    0x056a                  _LCDDATA18bits = 0x56a
                    0x056c                  LCDDATA19 = 0x56c
                    0x056c                  _LCDDATA19 = 0x56c
                    0x056c                  _LCDDATA19bits = 0x56c
                    0x056e                  LCDDATA20 = 0x56e
                    0x056e                  _LCDDATA20 = 0x56e
                    0x056e                  _LCDDATA20bits = 0x56e
                    0x0570                  LCDDATA21 = 0x570
                    0x0570                  _LCDDATA21 = 0x570
                    0x0570                  _LCDDATA21bits = 0x570
                    0x0572                  LCDDATA22 = 0x572
                    0x0572                  _LCDDATA22 = 0x572
                    0x0572                  _LCDDATA22bits = 0x572
                    0x0574                  LCDDATA23 = 0x574
                    0x0574                  _LCDDATA23 = 0x574
                    0x0574                  _LCDDATA23bits = 0x574
                    0x0576                  LCDDATA24 = 0x576
                    0x0576                  _LCDDATA24 = 0x576
                    0x0576                  _LCDDATA24bits = 0x576
                    0x0578                  LCDDATA25 = 0x578
                    0x0578                  _LCDDATA25 = 0x578
                    0x0578                  _LCDDATA25bits = 0x578
                    0x057a                  LCDDATA26 = 0x57a
                    0x057a                  _LCDDATA26 = 0x57a
                    0x057a                  _LCDDATA26bits = 0x57a
                    0x057c                  LCDDATA27 = 0x57c
                    0x057c                  _LCDDATA27 = 0x57c
                    0x057c                  _LCDDATA27bits = 0x57c
                    0x057e                  LCDDATA28 = 0x57e
                    0x057e                  _LCDDATA28 = 0x57e
                    0x057e                  _LCDDATA28bits = 0x57e
                    0x0580                  LCDDATA29 = 0x580
                    0x0580                  _LCDDATA29 = 0x580
                    0x0580                  _LCDDATA29bits = 0x580
                    0x0582                  LCDDATA30 = 0x582
                    0x0582                  _LCDDATA30 = 0x582
                    0x0582                  _LCDDATA30bits = 0x582
                    0x0584                  LCDDATA31 = 0x584
                    0x0584                  _LCDDATA31 = 0x584
                    0x0584                  _LCDDATA31bits = 0x584
                    0x0586                  LCDSE0 = 0x586
                    0x0586                  _LCDSE0 = 0x586
                    0x0586                  _LCDSE0bits = 0x586
                    0x0588                  LCDSE1 = 0x588
                    0x0588                  _LCDSE1 = 0x588
                    0x0588                  _LCDSE1bits = 0x588
                    0x058a                  LCDSE2 = 0x58a
                    0x058a                  _LCDSE2 = 0x58a
                    0x058a                  _LCDSE2bits = 0x58a
                    0x058c                  LCDSE3 = 0x58c
                    0x058c                  _LCDSE3 = 0x58c
                    0x058c                  _LCDSE3bits = 0x58c
                    0x058e                  LCDREG = 0x58e
                    0x058e                  _LCDREG = 0x58e
                    0x058e                  _LCDREGbits = 0x58e
                    0x0590                  LCDACTRL = 0x590
                    0x0590                  _LCDACTRL = 0x590
                    0x0590                  _LCDACTRLbits = 0x590
                    0x0592                  LCDASTAT = 0x592
                    0x0592                  _LCDASTAT = 0x592
                    0x0592                  _LCDASTATbits = 0x592
                    0x0594                  LCDFC0 = 0x594
                    0x0594                  _LCDFC0 = 0x594
                    0x0594                  _LCDFC0bits = 0x594
                    0x0596                  LCDFC1 = 0x596
                    0x0596                  _LCDFC1 = 0x596
                    0x0596                  _LCDFC1bits = 0x596
                    0x0598                  LCDFC2 = 0x598
                    0x0598                  _LCDFC2 = 0x598
                    0x0598                  _LCDFC2bits = 0x598
                    0x059a                  LCDTEVNT = 0x59a
                    0x059a                  _LCDTEVNT = 0x59a
                    0x059a                  _LCDTEVNTbits = 0x59a
                    0x059c                  LCDSDATA0 = 0x59c
                    0x059c                  _LCDSDATA0 = 0x59c
                    0x059c                  _LCDSDATA0bits = 0x59c
                    0x059e                  LCDSDATA1 = 0x59e
                    0x059e                  _LCDSDATA1 = 0x59e
                    0x059e                  _LCDSDATA1bits = 0x59e
                    0x05a0                  LCDSDATA2 = 0x5a0
                    0x05a0                  _LCDSDATA2 = 0x5a0
                    0x05a0                  _LCDSDATA2bits = 0x5a0
                    0x05a2                  LCDSDATA3 = 0x5a2
                    0x05a2                  _LCDSDATA3 = 0x5a2
                    0x05a2                  _LCDSDATA3bits = 0x5a2
                    0x05a4                  LCDSDATA4 = 0x5a4
                    0x05a4                  _LCDSDATA4 = 0x5a4
                    0x05a4                  _LCDSDATA4bits = 0x5a4
                    0x05a6                  LCDSDATA5 = 0x5a6
                    0x05a6                  _LCDSDATA5 = 0x5a6
                    0x05a6                  _LCDSDATA5bits = 0x5a6
                    0x05a8                  LCDSDATA6 = 0x5a8
                    0x05a8                  _LCDSDATA6 = 0x5a8
                    0x05a8                  _LCDSDATA6bits = 0x5a8
                    0x05aa                  LCDSDATA7 = 0x5aa
                    0x05aa                  _LCDSDATA7 = 0x5aa
                    0x05aa                  _LCDSDATA7bits = 0x5aa
                    0x05ac                  LCDSDATA8 = 0x5ac
                    0x05ac                  _LCDSDATA8 = 0x5ac
                    0x05ac                  _LCDSDATA8bits = 0x5ac
                    0x05ae                  LCDSDATA9 = 0x5ae
                    0x05ae                  _LCDSDATA9 = 0x5ae
                    0x05ae                  _LCDSDATA9bits = 0x5ae
                    0x05b0                  LCDSDATA10 = 0x5b0
                    0x05b0                  _LCDSDATA10 = 0x5b0
                    0x05b0                  _LCDSDATA10bits = 0x5b0
                    0x05b2                  LCDSDATA11 = 0x5b2
                    0x05b2                  _LCDSDATA11 = 0x5b2
                    0x05b2                  _LCDSDATA11bits = 0x5b2
                    0x05b4                  LCDSDATA12 = 0x5b4
                    0x05b4                  _LCDSDATA12 = 0x5b4
                    0x05b4                  _LCDSDATA12bits = 0x5b4
                    0x05b6                  LCDSDATA13 = 0x5b6
                    0x05b6                  _LCDSDATA13 = 0x5b6
                    0x05b6                  _LCDSDATA13bits = 0x5b6
                    0x05b8                  LCDSDATA14 = 0x5b8
                    0x05b8                  _LCDSDATA14 = 0x5b8
                    0x05b8                  _LCDSDATA14bits = 0x5b8
                    0x05ba                  LCDSDATA15 = 0x5ba
                    0x05ba                  _LCDSDATA15 = 0x5ba
                    0x05ba                  _LCDSDATA15bits = 0x5ba
                    0x05bc                  LCDSDATA16 = 0x5bc
                    0x05bc                  _LCDSDATA16 = 0x5bc
                    0x05bc                  _LCDSDATA16bits = 0x5bc
                    0x05be                  LCDSDATA17 = 0x5be
                    0x05be                  _LCDSDATA17 = 0x5be
                    0x05be                  _LCDSDATA17bits = 0x5be
                    0x05c0                  LCDSDATA18 = 0x5c0
                    0x05c0                  _LCDSDATA18 = 0x5c0
                    0x05c0                  _LCDSDATA18bits = 0x5c0
                    0x05c2                  LCDSDATA19 = 0x5c2
                    0x05c2                  _LCDSDATA19 = 0x5c2
                    0x05c2                  _LCDSDATA19bits = 0x5c2
                    0x05c4                  LCDSDATA20 = 0x5c4
                    0x05c4                  _LCDSDATA20 = 0x5c4
                    0x05c4                  _LCDSDATA20bits = 0x5c4
                    0x05c6                  LCDSDATA21 = 0x5c6
                    0x05c6                  _LCDSDATA21 = 0x5c6
                    0x05c6                  _LCDSDATA21bits = 0x5c6
                    0x05c8                  LCDSDATA22 = 0x5c8
                    0x05c8                  _LCDSDATA22 = 0x5c8
                    0x05c8                  _LCDSDATA22bits = 0x5c8
                    0x05ca                  LCDSDATA23 = 0x5ca
                    0x05ca                  _LCDSDATA23 = 0x5ca
                    0x05ca                  _LCDSDATA23bits = 0x5ca
                    0x05cc                  LCDSDATA24 = 0x5cc
                    0x05cc                  _LCDSDATA24 = 0x5cc
                    0x05cc                  _LCDSDATA24bits = 0x5cc
                    0x05ce                  LCDSDATA25 = 0x5ce
                    0x05ce                  _LCDSDATA25 = 0x5ce
                    0x05ce                  _LCDSDATA25bits = 0x5ce
                    0x05d0                  LCDSDATA26 = 0x5d0
                    0x05d0                  _LCDSDATA26 = 0x5d0
                    0x05d0                  _LCDSDATA26bits = 0x5d0
                    0x05d2                  LCDSDATA27 = 0x5d2
                    0x05d2                  _LCDSDATA27 = 0x5d2
                    0x05d2                  _LCDSDATA27bits = 0x5d2
                    0x05d4                  LCDSDATA28 = 0x5d4
                    0x05d4                  _LCDSDATA28 = 0x5d4
                    0x05d4                  _LCDSDATA28bits = 0x5d4
                    0x05d6                  LCDSDATA29 = 0x5d6
                    0x05d6                  _LCDSDATA29 = 0x5d6
                    0x05d6                  _LCDSDATA29bits = 0x5d6
                    0x05d8                  LCDSDATA30 = 0x5d8
                    0x05d8                  _LCDSDATA30 = 0x5d8
                    0x05d8                  _LCDSDATA30bits = 0x5d8
                    0x05da                  LCDSDATA31 = 0x5da
                    0x05da                  _LCDSDATA31 = 0x5da
                    0x05da                  _LCDSDATA31bits = 0x5da
                    0x065c                  PADCON = 0x65c
                    0x065c                  _PADCON = 0x65c
                    0x065c                  _PADCONbits = 0x65c
                    0x065e                  IOCSTAT = 0x65e
                    0x065e                  _IOCSTAT = 0x65e
                    0x065e                  _IOCSTATbits = 0x65e
                    0x0674                  TRISB = 0x674
                    0x0674                  _TRISB = 0x674
                    0x0674                  _TRISBbits = 0x674
                    0x0676                  PORTB = 0x676
                    0x0676                  _PORTB = 0x676
                    0x0676                  _PORTBbits = 0x676
                    0x0678                  LATB = 0x678
                    0x0678                  _LATB = 0x678
                    0x0678                  _LATBbits = 0x678
                    0x067a                  ODCB = 0x67a
                    0x067a                  _ODCB = 0x67a
                    0x067a                  _ODCBbits = 0x67a
                    0x067c                  ANSB = 0x67c
                    0x067c                  _ANSB = 0x67c
                    0x067c                  _ANSBbits = 0x67c
                    0x067c                  ANSELB = 0x67c
                    0x067c                  _ANSELB = 0x67c
                    0x067c                  _ANSELBbits = 0x67c
                    0x067e                  IOCPB = 0x67e
                    0x067e                  _IOCPB = 0x67e
                    0x067e                  _IOCPBbits = 0x67e
                    0x0680                  IOCNB = 0x680
                    0x0680                  _IOCNB = 0x680
                    0x0680                  _IOCNBbits = 0x680
                    0x0682                  IOCFB = 0x682
                    0x0682                  _IOCFB = 0x682
                    0x0682                  _IOCFBbits = 0x682
                    0x0684                  CNPUB = 0x684
                    0x0684                  _CNPUB = 0x684
                    0x0684                  _CNPUBbits = 0x684
                    0x0684                  IOCPUB = 0x684
                    0x0684                  _IOCPUB = 0x684
                    0x0684                  _IOCPUBbits = 0x684
                    0x0686                  CNPDB = 0x686
                    0x0686                  _CNPDB = 0x686
                    0x0686                  _CNPDBbits = 0x686
                    0x0686                  IOCPDB = 0x686
                    0x0686                  _IOCPDB = 0x686
                    0x0686                  _IOCPDBbits = 0x686
                    0x0688                  TRISC = 0x688
                    0x0688                  _TRISC = 0x688
                    0x0688                  _TRISCbits = 0x688
                    0x068a                  PORTC = 0x68a
                    0x068a                  _PORTC = 0x68a
                    0x068a                  _PORTCbits = 0x68a
                    0x068c                  LATC = 0x68c
                    0x068c                  _LATC = 0x68c
                    0x068c                  _LATCbits = 0x68c
                    0x068e                  ODCC = 0x68e
                    0x068e                  _ODCC = 0x68e
                    0x068e                  _ODCCbits = 0x68e
                    0x0692                  IOCPC = 0x692
                    0x0692                  _IOCPC = 0x692
                    0x0692                  _IOCPCbits = 0x692
                    0x0694                  IOCNC = 0x694
                    0x0694                  _IOCNC = 0x694
                    0x0694                  _IOCNCbits = 0x694
                    0x0696                  IOCFC = 0x696
                    0x0696                  _IOCFC = 0x696
                    0x0696                  _IOCFCbits = 0x696
                    0x0698                  CNPUC = 0x698
                    0x0698                  _CNPUC = 0x698
                    0x0698                  _CNPUCbits = 0x698
                    0x0698                  IOCPUC = 0x698
                    0x0698                  _IOCPUC = 0x698
                    0x0698                  _IOCPUCbits = 0x698
                    0x069a                  CNPDC = 0x69a
                    0x069a                  _CNPDC = 0x69a
                    0x069a                  _CNPDCbits = 0x69a
                    0x069a                  IOCPDC = 0x69a
                    0x069a                  _IOCPDC = 0x69a
                    0x069a                  _IOCPDCbits = 0x69a
                    0x069c                  TRISD = 0x69c
                    0x069c                  _TRISD = 0x69c
                    0x069c                  _TRISDbits = 0x69c
                    0x069e                  PORTD = 0x69e
                    0x069e                  _PORTD = 0x69e
                    0x069e                  _PORTDbits = 0x69e
                    0x06a0                  LATD = 0x6a0
                    0x06a0                  _LATD = 0x6a0
                    0x06a0                  _LATDbits = 0x6a0
                    0x06a2                  ODCD = 0x6a2
                    0x06a2                  _ODCD = 0x6a2
                    0x06a2                  _ODCDbits = 0x6a2
                    0x06a4                  ANSD = 0x6a4
                    0x06a4                  _ANSD = 0x6a4
                    0x06a4                  _ANSDbits = 0x6a4
                    0x06a4                  ANSELD = 0x6a4
                    0x06a4                  _ANSELD = 0x6a4
                    0x06a4                  _ANSELDbits = 0x6a4
                    0x06a6                  IOCPD = 0x6a6
                    0x06a6                  _IOCPD = 0x6a6
                    0x06a6                  _IOCPDbits = 0x6a6
                    0x06a8                  IOCND = 0x6a8
                    0x06a8                  _IOCND = 0x6a8
                    0x06a8                  _IOCNDbits = 0x6a8
                    0x06aa                  IOCFD = 0x6aa
                    0x06aa                  _IOCFD = 0x6aa
                    0x06aa                  _IOCFDbits = 0x6aa
                    0x06ac                  CNPUD = 0x6ac
                    0x06ac                  _CNPUD = 0x6ac
                    0x06ac                  _CNPUDbits = 0x6ac
                    0x06ac                  IOCPUD = 0x6ac
                    0x06ac                  _IOCPUD = 0x6ac
                    0x06ac                  _IOCPUDbits = 0x6ac
                    0x06ae                  CNPDD = 0x6ae
                    0x06ae                  _CNPDD = 0x6ae
                    0x06ae                  _CNPDDbits = 0x6ae
                    0x06ae                  IOCPDD = 0x6ae
                    0x06ae                  _IOCPDD = 0x6ae
                    0x06ae                  _IOCPDDbits = 0x6ae
                    0x06b0                  TRISE = 0x6b0
                    0x06b0                  _TRISE = 0x6b0
                    0x06b0                  _TRISEbits = 0x6b0
                    0x06b2                  PORTE = 0x6b2
                    0x06b2                  _PORTE = 0x6b2
                    0x06b2                  _PORTEbits = 0x6b2
                    0x06b4                  LATE = 0x6b4
                    0x06b4                  _LATE = 0x6b4
                    0x06b4                  _LATEbits = 0x6b4
                    0x06b6                  ODCE = 0x6b6
                    0x06b6                  _ODCE = 0x6b6
                    0x06b6                  _ODCEbits = 0x6b6
                    0x06b8                  ANSE = 0x6b8
                    0x06b8                  _ANSE = 0x6b8
                    0x06b8                  _ANSEbits = 0x6b8
                    0x06b8                  ANSELE = 0x6b8
                    0x06b8                  _ANSELE = 0x6b8
                    0x06b8                  _ANSELEbits = 0x6b8
                    0x06ba                  IOCPE = 0x6ba
                    0x06ba                  _IOCPE = 0x6ba
                    0x06ba                  _IOCPEbits = 0x6ba
                    0x06bc                  IOCNE = 0x6bc
                    0x06bc                  _IOCNE = 0x6bc
                    0x06bc                  _IOCNEbits = 0x6bc
                    0x06be                  IOCFE = 0x6be
                    0x06be                  _IOCFE = 0x6be
                    0x06be                  _IOCFEbits = 0x6be
                    0x06c0                  CNPUE = 0x6c0
                    0x06c0                  _CNPUE = 0x6c0
                    0x06c0                  _CNPUEbits = 0x6c0
                    0x06c0                  IOCPUE = 0x6c0
                    0x06c0                  _IOCPUE = 0x6c0
                    0x06c0                  _IOCPUEbits = 0x6c0
                    0x06c2                  CNPDE = 0x6c2
                    0x06c2                  _CNPDE = 0x6c2
                    0x06c2                  _CNPDEbits = 0x6c2
                    0x06c2                  IOCPDE = 0x6c2
                    0x06c2                  _IOCPDE = 0x6c2
                    0x06c2                  _IOCPDEbits = 0x6c2
                    0x06c4                  TRISF = 0x6c4
                    0x06c4                  _TRISF = 0x6c4
                    0x06c4                  _TRISFbits = 0x6c4
                    0x06c6                  PORTF = 0x6c6
                    0x06c6                  _PORTF = 0x6c6
                    0x06c6                  _PORTFbits = 0x6c6
                    0x06c8                  LATF = 0x6c8
                    0x06c8                  _LATF = 0x6c8
                    0x06c8                  _LATFbits = 0x6c8
                    0x06ca                  ODCF = 0x6ca
                    0x06ca                  _ODCF = 0x6ca
                    0x06ca                  _ODCFbits = 0x6ca
                    0x06ce                  IOCPF = 0x6ce
                    0x06ce                  _IOCPF = 0x6ce
                    0x06ce                  _IOCPFbits = 0x6ce
                    0x06d0                  IOCNF = 0x6d0
                    0x06d0                  _IOCNF = 0x6d0
                    0x06d0                  _IOCNFbits = 0x6d0
                    0x06d2                  IOCFF = 0x6d2
                    0x06d2                  _IOCFF = 0x6d2
                    0x06d2                  _IOCFFbits = 0x6d2
                    0x06d4                  CNPUF = 0x6d4
                    0x06d4                  _CNPUF = 0x6d4
                    0x06d4                  _CNPUFbits = 0x6d4
                    0x06d4                  IOCPUF = 0x6d4
                    0x06d4                  _IOCPUF = 0x6d4
                    0x06d4                  _IOCPUFbits = 0x6d4
                    0x06d6                  CNPDF = 0x6d6
                    0x06d6                  _CNPDF = 0x6d6
                    0x06d6                  _CNPDFbits = 0x6d6
                    0x06d6                  IOCPDF = 0x6d6
                    0x06d6                  _IOCPDF = 0x6d6
                    0x06d6                  _IOCPDFbits = 0x6d6
                    0x06d8                  TRISG = 0x6d8
                    0x06d8                  _TRISG = 0x6d8
                    0x06d8                  _TRISGbits = 0x6d8
                    0x06da                  PORTG = 0x6da
                    0x06da                  _PORTG = 0x6da
                    0x06da                  _PORTGbits = 0x6da
                    0x06dc                  LATG = 0x6dc
                    0x06dc                  _LATG = 0x6dc
                    0x06dc                  _LATGbits = 0x6dc
                    0x06de                  ODCG = 0x6de
                    0x06de                  _ODCG = 0x6de
                    0x06de                  _ODCGbits = 0x6de
                    0x06e0                  ANSELG = 0x6e0
                    0x06e0                  _ANSELG = 0x6e0
                    0x06e0                  _ANSELGbits = 0x6e0
                    0x06e0                  ANSG = 0x6e0
                    0x06e0                  _ANSG = 0x6e0
                    0x06e0                  _ANSGbits = 0x6e0
                    0x06e2                  IOCPG = 0x6e2
                    0x06e2                  _IOCPG = 0x6e2
                    0x06e2                  _IOCPGbits = 0x6e2
                    0x06e4                  IOCNG = 0x6e4
                    0x06e4                  _IOCNG = 0x6e4
                    0x06e4                  _IOCNGbits = 0x6e4
                    0x06e6                  IOCFG = 0x6e6
                    0x06e6                  _IOCFG = 0x6e6
                    0x06e6                  _IOCFGbits = 0x6e6
                    0x06e8                  CNPUG = 0x6e8
                    0x06e8                  _CNPUG = 0x6e8
                    0x06e8                  _CNPUGbits = 0x6e8
                    0x06e8                  IOCPUG = 0x6e8
                    0x06e8                  _IOCPUG = 0x6e8
                    0x06e8                  _IOCPUGbits = 0x6e8
                    0x06ea                  CNPDG = 0x6ea
                    0x06ea                  _CNPDG = 0x6ea
                    0x06ea                  _CNPDGbits = 0x6ea
                    0x06ea                  IOCPDG = 0x6ea
                    0x06ea                  _IOCPDG = 0x6ea
                    0x06ea                  _IOCPDGbits = 0x6ea
                    0x06ec                  TRISH = 0x6ec
                    0x06ec                  _TRISH = 0x6ec
                    0x06ec                  _TRISHbits = 0x6ec
                    0x06ee                  PORTH = 0x6ee
                    0x06ee                  _PORTH = 0x6ee
                    0x06ee                  _PORTHbits = 0x6ee
                    0x06f0                  LATH = 0x6f0
                    0x06f0                  _LATH = 0x6f0
                    0x06f0                  _LATHbits = 0x6f0
                    0x06f2                  ODCH = 0x6f2
                    0x06f2                  _ODCH = 0x6f2
                    0x06f2                  _ODCHbits = 0x6f2
                    0x06f6                  IOCPH = 0x6f6
                    0x06f6                  _IOCPH = 0x6f6
                    0x06f6                  _IOCPHbits = 0x6f6
                    0x06f8                  IOCNH = 0x6f8
                    0x06f8                  _IOCNH = 0x6f8
                    0x06f8                  _IOCNHbits = 0x6f8
                    0x06fa                  IOCFH = 0x6fa
                    0x06fa                  _IOCFH = 0x6fa
                    0x06fa                  _IOCFHbits = 0x6fa
                    0x06fc                  CNPUH = 0x6fc
                    0x06fc                  _CNPUH = 0x6fc
                    0x06fc                  _CNPUHbits = 0x6fc
                    0x06fc                  IOCPUH = 0x6fc
                    0x06fc                  _IOCPUH = 0x6fc
                    0x06fc                  _IOCPUHbits = 0x6fc
                    0x06fe                  CNPDH = 0x6fe
                    0x06fe                  _CNPDH = 0x6fe
                    0x06fe                  _CNPDHbits = 0x6fe
                    0x06fe                  IOCPDH = 0x6fe
                    0x06fe                  _IOCPDH = 0x6fe
                    0x06fe                  _IOCPDHbits = 0x6fe
                    0x0700                  ADC1BUF0 = 0x700
                    0x0700                  _ADC1BUF0 = 0x700
                    0x0702                  ADC1BUF1 = 0x702
                    0x0702                  _ADC1BUF1 = 0x702
                    0x0704                  ADC1BUF2 = 0x704
                    0x0704                  _ADC1BUF2 = 0x704
                    0x0706                  ADC1BUF3 = 0x706
                    0x0706                  _ADC1BUF3 = 0x706
                    0x0708                  ADC1BUF4 = 0x708
                    0x0708                  _ADC1BUF4 = 0x708
                    0x070a                  ADC1BUF5 = 0x70a
                    0x070a                  _ADC1BUF5 = 0x70a
                    0x070c                  ADC1BUF6 = 0x70c
                    0x070c                  _ADC1BUF6 = 0x70c
                    0x070e                  ADC1BUF7 = 0x70e
                    0x070e                  _ADC1BUF7 = 0x70e
                    0x0710                  ADC1BUF8 = 0x710
                    0x0710                  _ADC1BUF8 = 0x710
                    0x0712                  ADC1BUF9 = 0x712
                    0x0712                  _ADC1BUF9 = 0x712
                    0x0714                  ADC1BUF10 = 0x714
                    0x0714                  _ADC1BUF10 = 0x714
                    0x0716                  ADC1BUF11 = 0x716
                    0x0716                  _ADC1BUF11 = 0x716
                    0x0718                  ADC1BUF12 = 0x718
                    0x0718                  _ADC1BUF12 = 0x718
                    0x071a                  ADC1BUF13 = 0x71a
                    0x071a                  _ADC1BUF13 = 0x71a
                    0x071c                  ADC1BUF14 = 0x71c
                    0x071c                  _ADC1BUF14 = 0x71c
                    0x071e                  ADC1BUF15 = 0x71e
                    0x071e                  _ADC1BUF15 = 0x71e
                    0x0720                  ADC1BUF16 = 0x720
                    0x0720                  _ADC1BUF16 = 0x720
                    0x0722                  ADC1BUF17 = 0x722
                    0x0722                  _ADC1BUF17 = 0x722
                    0x0724                  ADC1BUF18 = 0x724
                    0x0724                  _ADC1BUF18 = 0x724
                    0x0726                  ADC1BUF19 = 0x726
                    0x0726                  _ADC1BUF19 = 0x726
                    0x0728                  ADC1BUF20 = 0x728
                    0x0728                  _ADC1BUF20 = 0x728
                    0x072a                  ADC1BUF21 = 0x72a
                    0x072a                  _ADC1BUF21 = 0x72a
                    0x072c                  ADC1BUF22 = 0x72c
                    0x072c                  _ADC1BUF22 = 0x72c
                    0x072e                  ADC1BUF23 = 0x72e
                    0x072e                  _ADC1BUF23 = 0x72e
                    0x0734                  AD1CON1 = 0x734
                    0x0734                  _AD1CON1 = 0x734
                    0x0734                  _AD1CON1bits = 0x734
                    0x0736                  AD1CON2 = 0x736
                    0x0736                  _AD1CON2 = 0x736
                    0x0736                  _AD1CON2bits = 0x736
                    0x0738                  AD1CON3 = 0x738
                    0x0738                  _AD1CON3 = 0x738
                    0x0738                  _AD1CON3bits = 0x738
                    0x073a                  AD1CHS = 0x73a
                    0x073a                  _AD1CHS = 0x73a
                    0x073a                  _AD1CHSbits = 0x73a
                    0x073a                  AD1CHS0 = 0x73a
                    0x073a                  _AD1CHS0 = 0x73a
                    0x073a                  _AD1CHS0bits = 0x73a
                    0x073c                  AD1CSSH = 0x73c
                    0x073c                  _AD1CSSH = 0x73c
                    0x073c                  _AD1CSSHbits = 0x73c
                    0x073e                  AD1CSSL = 0x73e
                    0x073e                  _AD1CSSL = 0x73e
                    0x073e                  _AD1CSSLbits = 0x73e
                    0x0740                  AD1CON4 = 0x740
                    0x0740                  _AD1CON4 = 0x740
                    0x0740                  _AD1CON4bits = 0x740
                    0x0742                  AD1CON5 = 0x742
                    0x0742                  _AD1CON5 = 0x742
                    0x0742                  _AD1CON5bits = 0x742
                    0x0744                  AD1CHITH = 0x744
                    0x0744                  _AD1CHITH = 0x744
                    0x0744                  _AD1CHITHbits = 0x744
                    0x0746                  AD1CHITL = 0x746
                    0x0746                  _AD1CHITL = 0x746
                    0x0746                  _AD1CHITLbits = 0x746
                    0x074c                  AD1DMBUF = 0x74c
                    0x074c                  _AD1DMBUF = 0x74c
                    0x074c                  _AD1DMBUFbits = 0x74c
                    0x074c                  AD1RESDMA = 0x74c
                    0x074c                  _AD1RESDMA = 0x74c
                    0x074c                  _AD1RESDMAbits = 0x74c
                    0x0760                  NVMCON = 0x760
                    0x0760                  _NVMCON = 0x760
                    0x0760                  _NVMCONbits = 0x760
                    0x0762                  NVMADR = 0x762
                    0x0762                  _NVMADR = 0x762
                    0x0762                  _NVMADRbits = 0x762
                    0x0762                  NVMADRL = 0x762
                    0x0762                  _NVMADRL = 0x762
                    0x0762                  _NVMADRLbits = 0x762
                    0x0764                  NVMADRH = 0x764
                    0x0764                  _NVMADRH = 0x764
                    0x0764                  _NVMADRHbits = 0x764
                    0x0764                  NVMADRU = 0x764
                    0x0764                  _NVMADRU = 0x764
                    0x0764                  _NVMADRUbits = 0x764
                    0x0766                  NVMKEY = 0x766
                    0x0766                  _NVMKEY = 0x766
                    0x076c                  ECCCONL = 0x76c
                    0x076c                  _ECCCONL = 0x76c
                    0x076c                  _ECCCONLbits = 0x76c
                    0x076e                  ECCCONH = 0x76e
                    0x076e                  _ECCCONH = 0x76e
                    0x076e                  _ECCCONHbits = 0x76e
                    0x0770                  ECCADDRL = 0x770
                    0x0770                  _ECCADDRL = 0x770
                    0x0772                  ECCADDRH = 0x772
                    0x0772                  _ECCADDRH = 0x772
                    0x0774                  ECCSTATL = 0x774
                    0x0774                  _ECCSTATL = 0x774
                    0x0774                  _ECCSTATLbits = 0x774
                    0x0776                  ECCSTATH = 0x776
                    0x0776                  _ECCSTATH = 0x776
                    0x0776                  _ECCSTATHbits = 0x776
                    0x0790                  RPINR0 = 0x790
                    0x0790                  _RPINR0 = 0x790
                    0x0790                  _RPINR0bits = 0x790
                    0x0792                  RPINR1 = 0x792
                    0x0792                  _RPINR1 = 0x792
                    0x0792                  _RPINR1bits = 0x792
                    0x0794                  RPINR2 = 0x794
                    0x0794                  _RPINR2 = 0x794
                    0x0794                  _RPINR2bits = 0x794
                    0x0796                  RPINR3 = 0x796
                    0x0796                  _RPINR3 = 0x796
                    0x0796                  _RPINR3bits = 0x796
                    0x0798                  RPINR4 = 0x798
                    0x0798                  _RPINR4 = 0x798
                    0x0798                  _RPINR4bits = 0x798
                    0x079a                  RPINR5 = 0x79a
                    0x079a                  _RPINR5 = 0x79a
                    0x079a                  _RPINR5bits = 0x79a
                    0x079c                  RPINR6 = 0x79c
                    0x079c                  _RPINR6 = 0x79c
                    0x079c                  _RPINR6bits = 0x79c
                    0x07a6                  RPINR11 = 0x7a6
                    0x07a6                  _RPINR11 = 0x7a6
                    0x07a6                  _RPINR11bits = 0x7a6
                    0x07a8                  RPINR12 = 0x7a8
                    0x07a8                  _RPINR12 = 0x7a8
                    0x07a8                  _RPINR12bits = 0x7a8
                    0x07aa                  RPINR13 = 0x7aa
                    0x07aa                  _RPINR13 = 0x7aa
                    0x07aa                  _RPINR13bits = 0x7aa
                    0x07ac                  RPINR14 = 0x7ac
                    0x07ac                  _RPINR14 = 0x7ac
                    0x07ac                  _RPINR14bits = 0x7ac
                    0x07ae                  RPINR15 = 0x7ae
                    0x07ae                  _RPINR15 = 0x7ae
                    0x07ae                  _RPINR15bits = 0x7ae
                    0x07b2                  RPINR17 = 0x7b2
                    0x07b2                  _RPINR17 = 0x7b2
                    0x07b2                  _RPINR17bits = 0x7b2
                    0x07b4                  RPINR18 = 0x7b4
                    0x07b4                  _RPINR18 = 0x7b4
                    0x07b4                  _RPINR18bits = 0x7b4
                    0x07b6                  RPINR19 = 0x7b6
                    0x07b6                  _RPINR19 = 0x7b6
                    0x07b6                  _RPINR19bits = 0x7b6
                    0x07b8                  RPINR20 = 0x7b8
                    0x07b8                  _RPINR20 = 0x7b8
                    0x07b8                  _RPINR20bits = 0x7b8
                    0x07ba                  RPINR21 = 0x7ba
                    0x07ba                  _RPINR21 = 0x7ba
                    0x07ba                  _RPINR21bits = 0x7ba
                    0x07bc                  RPINR22 = 0x7bc
                    0x07bc                  _RPINR22 = 0x7bc
                    0x07bc                  _RPINR22bits = 0x7bc
                    0x07be                  RPINR23 = 0x7be
                    0x07be                  _RPINR23 = 0x7be
                    0x07be                  _RPINR23bits = 0x7be
                    0x07c2                  RPINR25 = 0x7c2
                    0x07c2                  _RPINR25 = 0x7c2
                    0x07c2                  _RPINR25bits = 0x7c2
                    0x07c4                  RPINR26 = 0x7c4
                    0x07c4                  _RPINR26 = 0x7c4
                    0x07c4                  _RPINR26bits = 0x7c4
                    0x07c6                  RPINR27 = 0x7c6
                    0x07c6                  _RPINR27 = 0x7c6
                    0x07c6                  _RPINR27bits = 0x7c6
                    0x07cc                  RPINR30 = 0x7cc
                    0x07cc                  _RPINR30 = 0x7cc
                    0x07cc                  _RPINR30bits = 0x7cc
                    0x07ce                  RPINR31 = 0x7ce
                    0x07ce                  _RPINR31 = 0x7ce
                    0x07ce                  _RPINR31bits = 0x7ce
                    0x07d4                  RPOR0 = 0x7d4
                    0x07d4                  _RPOR0 = 0x7d4
                    0x07d4                  _RPOR0bits = 0x7d4
                    0x07d6                  RPOR1 = 0x7d6
                    0x07d6                  _RPOR1 = 0x7d6
                    0x07d6                  _RPOR1bits = 0x7d6
                    0x07d8                  RPOR2 = 0x7d8
                    0x07d8                  _RPOR2 = 0x7d8
                    0x07d8                  _RPOR2bits = 0x7d8
                    0x07da                  RPOR3 = 0x7da
                    0x07da                  _RPOR3 = 0x7da
                    0x07da                  _RPOR3bits = 0x7da
                    0x07dc                  RPOR4 = 0x7dc
                    0x07dc                  _RPOR4 = 0x7dc
                    0x07dc                  _RPOR4bits = 0x7dc
                    0x07de                  RPOR5 = 0x7de
                    0x07de                  _RPOR5 = 0x7de
                    0x07de                  _RPOR5bits = 0x7de
                    0x07e0                  RPOR6 = 0x7e0
                    0x07e0                  _RPOR6 = 0x7e0
                    0x07e0                  _RPOR6bits = 0x7e0
                    0x07e2                  RPOR7 = 0x7e2
                    0x07e2                  _RPOR7 = 0x7e2
                    0x07e2                  _RPOR7bits = 0x7e2
                    0x07e4                  RPOR8 = 0x7e4
                    0x07e4                  _RPOR8 = 0x7e4
                    0x07e4                  _RPOR8bits = 0x7e4
                    0x07e6                  RPOR9 = 0x7e6
                    0x07e6                  _RPOR9 = 0x7e6
                    0x07e6                  _RPOR9bits = 0x7e6
                    0x07e8                  RPOR10 = 0x7e8
                    0x07e8                  _RPOR10 = 0x7e8
                    0x07e8                  _RPOR10bits = 0x7e8
                    0x07ea                  RPOR11 = 0x7ea
                    0x07ea                  _RPOR11 = 0x7ea
                    0x07ea                  _RPOR11bits = 0x7ea
                    0x07ec                  RPOR12 = 0x7ec
                    0x07ec                  _RPOR12 = 0x7ec
                    0x07ec                  _RPOR12bits = 0x7ec
                    0x07ee                  RPOR13 = 0x7ee
                    0x07ee                  _RPOR13 = 0x7ee
                    0x07ee                  _RPOR13bits = 0x7ee
                    0x07f0                  RPOR14 = 0x7f0
                    0x07f0                  _RPOR14 = 0x7f0
                    0x07f0                  _RPOR14bits = 0x7f0
                    0x07f4                  RPOR16 = 0x7f4
                    0x07f4                  _RPOR16 = 0x7f4
                    0x07f4                  _RPOR16bits = 0x7f4
                    0x07f6                  RPOR17 = 0x7f6
                    0x07f6                  _RPOR17 = 0x7f6
                    0x07f6                  _RPOR17bits = 0x7f6
                    0x07f8                  RPOR18 = 0x7f8
                    0x07f8                  _RPOR18 = 0x7f8
                    0x07f8                  _RPOR18bits = 0x7f8
                    0x0398                  UART1 = 0x398
                    0x0398                  _UART1 = 0x398
                    0x03ae                  UART2 = 0x3ae
                    0x03ae                  _UART2 = 0x3ae
START GROUP
LOAD c:/program files/microchip/xc16/v1.61/bin/bin/../../lib\liblega-pic30-elf.a
LOAD c:/program files/microchip/xc16/v1.61/bin/bin/../../lib\libm-elf.a
LOAD c:/program files/microchip/xc16/v1.61/bin/bin/../../lib\liblega-c-elf.a
END GROUP
OUTPUT(dist/default/production/Lib.X.production.elf elf32-pic30)
LOAD /CW/_FSEC
LOAD jump_table
LOAD default_isr
LOAD data_init

.debug_pubtypes
                  0x000108        0x78d
 .debug_pubtypes
                  0x000108         0x67 build/default/production/hal/hal_uart.o
 .debug_pubtypes
                  0x00016f         0x47 build/default/production/lib/io.o
 .debug_pubtypes
                  0x0001b6        0x126 build/default/production/lib/wimbus.o
 .debug_pubtypes
                  0x0002dc        0x1e8 build/default/production/lib/wimuart.o
 .debug_pubtypes
                  0x0004c4        0x108 build/default/production/lib/async_uart.o
 .debug_pubtypes
                  0x0005cc         0xfb build/default/production/lib/driver_init.o
 .debug_pubtypes
                  0x0006c7         0x3a build/default/production/lib/ringbuffer.o
 .debug_pubtypes
                  0x000701         0x12 build/default/production/main.o
 .debug_pubtypes
                  0x000713         0x40 build/default/production/system.o
 .debug_pubtypes
                  0x000753        0x142 build/default/production/board.o

__c30_signature
                  0x000895        0x10e
 __c30_signature
                  0x000895          0x6 build/default/production/hal/hal_uart.o
 __c30_signature
                  0x00089b          0x6 build/default/production/lib/io.o
 __c30_signature
                  0x0008a1          0x6 build/default/production/lib/wimbus.o
 __c30_signature
                  0x0008a7          0x6 build/default/production/lib/wimuart.o
 __c30_signature
                  0x0008ad          0x6 build/default/production/lib/async_uart.o
 __c30_signature
                  0x0008b3          0x6 build/default/production/lib/driver_init.o
 __c30_signature
                  0x0008b9          0x6 build/default/production/lib/ringbuffer.o
 __c30_signature
                  0x0008bf          0x6 build/default/production/main.o
 __c30_signature
                  0x0008c5          0x6 build/default/production/system.o
 __c30_signature
                  0x0008cb          0x6 build/default/production/board.o
 __c30_signature
                  0x0008d1          0x6 c:/program files/microchip/xc16/v1.61/bin/bin/../../lib\liblega-pic30-elf.a(crt0_extended24.o)
 __c30_signature
                  0x0008d7          0x6 c:/program files/microchip/xc16/v1.61/bin/bin/../../lib\liblega-pic30-elf.a(data_init_24.o)
 __c30_signature
                  0x0008dd          0x6 c:/program files/microchip/xc16/v1.61/bin/bin/../../lib\liblega-pic30-elf.a(delay32da.Leo)
 __c30_signature
                  0x0008e3          0x6 c:/program files/microchip/xc16/v1.61/bin/bin/../../lib\libm-elf.a(udivsi3.daeo)
 __c30_signature
                  0x0008e9          0x6 c:/program files/microchip/xc16/v1.61/bin/bin/../../lib\liblega-c-elf.a(strlen.DA_eo)
 __c30_signature
                  0x0008ef          0x6 c:/program files/microchip/xc16/v1.61/bin/bin/../../lib\liblega-c-elf.a(sprintf_cdnopsuxX.DAeo)
 __c30_signature
                  0x0008f5          0x6 c:/program files/microchip/xc16/v1.61/bin/bin/../../lib\liblega-c-elf.a(xprintf_cdnopsuxX.DAeo)
 __c30_signature
                  0x0008fb          0x6 c:/program files/microchip/xc16/v1.61/bin/bin/../../lib\liblega-c-elf.a(xputfld_cdnopsuxX.DAeo)
 __c30_signature
                  0x000901          0x6 c:/program files/microchip/xc16/v1.61/bin/bin/../../lib\liblega-c-elf.a(memchr.DA_eo)
 __c30_signature
                  0x000907          0x6 c:/program files/microchip/xc16/v1.61/bin/bin/../../lib\liblega-c-elf.a(memcpy.DA_eo)
 __c30_signature
                  0x00090d          0x6 c:/program files/microchip/xc16/v1.61/bin/bin/../../lib\liblega-c-elf.a(strchr.DA_eo)
 __c30_signature
                  0x000913          0x6 c:/program files/microchip/xc16/v1.61/bin/bin/../../lib\liblega-c-elf.a(xlitob.DA_eo)
 __c30_signature
                  0x000919          0x6 c:/program files/microchip/xc16/v1.61/bin/bin/../../lib\liblega-c-elf.a(xputtxt.DA_eo)
 __c30_signature
                  0x00091f          0x6 c:/program files/microchip/xc16/v1.61/bin/bin/../../lib\liblega-c-elf.a(xvacopy.DA_eo)
 __c30_signature
                  0x000925          0x6 c:/program files/microchip/xc16/v1.61/bin/bin/../../lib\liblega-c-elf.a(efwrite.DA_eo)
 __c30_signature
                  0x00092b          0x6 c:/program files/microchip/xc16/v1.61/bin/bin/../../lib\liblega-c-elf.a(fflush.DA_elo)
 __c30_signature
                  0x000931          0x6 c:/program files/microchip/xc16/v1.61/bin/bin/../../lib\liblega-c-elf.a(xfiles.DA_elo)
 __c30_signature
                  0x000937          0x6 c:/program files/microchip/xc16/v1.61/bin/bin/../../lib\liblega-c-elf.a(xfwprep.DA_eo)
 __c30_signature
                  0x00093d          0x6 c:/program files/microchip/xc16/v1.61/bin/bin/../../lib\liblega-c-elf.a(fclose.DA_elo)
 __c30_signature
                  0x000943          0x6 c:/program files/microchip/xc16/v1.61/bin/bin/../../lib\liblega-c-elf.a(xatexit.DA_elo)
 __c30_signature
                  0x000949          0x6 c:/program files/microchip/xc16/v1.61/bin/bin/../../lib\liblega-c-elf.a(free.DA_eo)
 __c30_signature
                  0x00094f          0x6 c:/program files/microchip/xc16/v1.61/bin/bin/../../lib\liblega-c-elf.a(malloc.DA_eo)
 __c30_signature
                  0x000955          0x6 c:/program files/microchip/xc16/v1.61/bin/bin/../../lib\liblega-c-elf.a(xgetmem.DA_eo)
 __c30_signature
                  0x00095b          0x6 c:/program files/microchip/xc16/v1.61/bin/bin/../../lib\liblega-pic30-elf.a(closeda.Leo)
 __c30_signature
                  0x000961          0x6 c:/program files/microchip/xc16/v1.61/bin/bin/../../lib\liblega-pic30-elf.a(writeda.Leo)
 __c30_signature
                  0x000967          0x6 c:/program files/microchip/xc16/v1.61/bin/bin/../../lib\liblega-pic30-elf.a(removeda.Leo)
 __c30_signature
                  0x00096d          0x6 c:/program files/microchip/xc16/v1.61/bin/bin/../../lib\liblega-pic30-elf.a(sbrkda.Leo)
 __c30_signature
                  0x000973          0x6 c:/program files/microchip/xc16/v1.61/bin/bin/../../lib\liblega-pic30-elf.a(c30_uartda.Leo)
 __c30_signature
                  0x000979          0x6 c:/program files/microchip/xc16/v1.61/bin/bin/../../lib\liblega-pic30-elf.a(memcpy_edsda.Leo)
 __c30_signature
                  0x00097f          0x6 c:/program files/microchip/xc16/v1.61/bin/bin/../../lib\liblega-pic30-elf.a(memchr_edsda.Leo)
 __c30_signature
                  0x000985          0x6 c:/program files/microchip/xc16/v1.61/bin/bin/../../lib\liblega-pic30-elf.a(brkda.Lelo)
 __c30_signature
                  0x00098b          0x6 c:/program files/microchip/xc16/v1.61/bin/bin/../../lib\libm-elf.a(divsi3.daeo)
 __c30_signature
                  0x000991          0x6 c:/program files/microchip/xc16/v1.61/bin/bin/../../lib\libm-elf.a(umodsi3.daeo)
 __c30_signature
                  0x000997          0x6 c:/program files/microchip/xc16/v1.61/bin/bin/../../lib\libm-elf.a(mulsi3.daeo)
 __c30_signature
                  0x00099d          0x6 c:/program files/microchip/xc16/v1.61/bin/bin/../../lib\libm-elf.a(divmoddi3.daeo)

.bss                0x0800        0x184
 .bss               0x0800        0x184 build/default/production/lib/driver_init.o
                    0x0800                  _uart2Buffer
                    0x08fa                  _async_uart1
                    0x0928                  _async_uart2
                    0x0956                  _async_uart3

.data               0x0984        0x106
 .data              0x0984         0x88 c:/program files/microchip/xc16/v1.61/bin/bin/../../lib\liblega-c-elf.a(xfiles.DA_elo)
                    0x0984                  __Stdin
                    0x09ac                  __Stdout
                    0x09d4                  __Stderr
                    0x09fc                  __Files
 .data              0x0a0c         0x42 build/default/production/lib/wimuart.o
 .data              0x0a4e         0x22 c:/program files/microchip/xc16/v1.61/bin/bin/../../lib\liblega-c-elf.a(xlitob.DA_eo)
 .data              0x0a70         0x1a c:/program files/microchip/xc16/v1.61/bin/bin/../../lib\liblega-c-elf.a(xprintf_cdnopsuxX.DAeo)

.bss                0x0a8a         0x10
 .bss               0x0a8a          0x6 build/default/production/hal/hal_uart.o
 .bss               0x0a90          0x4 build/default/production/board.o
                    0x0a90                  _gBoardGlobal
 .bss               0x0a94          0x4 c:/program files/microchip/xc16/v1.61/bin/bin/../../lib\liblega-c-elf.a(malloc.DA_eo)
                    0x0a94                  __Aldata
 .bss               0x0a98          0x2 c:/program files/microchip/xc16/v1.61/bin/bin/../../lib\liblega-c-elf.a(fclose.DA_elo)

.data               0x0a9a          0x4
 .data              0x0a9a          0x2 c:/program files/microchip/xc16/v1.61/bin/bin/../../lib\liblega-c-elf.a(malloc.DA_eo)
                    0x0a9a                  __Size_block
 .data              0x0a9c          0x2 c:/program files/microchip/xc16/v1.61/bin/bin/../../lib\liblega-pic30-elf.a(c30_uartda.Leo)
                    0x0a9c                  ___C30_UART

.bss                0x0a9e          0x2
 .bss               0x0a9e          0x2 c:/program files/microchip/xc16/v1.61/bin/bin/../../lib\liblega-pic30-elf.a(brkda.Lelo)
                    0x0a9e                  ___curbrk

.ivt._U1TXInterrupt
                  0x00002c          0x2
 .ivt._U1TXInterrupt
                  0x00002c          0x2 build/default/production/hal/hal_uart.o

.ivt._U1RXInterrupt
                  0x00002a          0x2
 .ivt._U1RXInterrupt
                  0x00002a          0x2 build/default/production/hal/hal_uart.o

.ivt._U2TXInterrupt
                  0x000052          0x2
 .ivt._U2TXInterrupt
                  0x000052          0x2 build/default/production/hal/hal_uart.o

.ivt._U2RXInterrupt
                  0x000050          0x2
 .ivt._U2RXInterrupt
                  0x000050          0x2 build/default/production/hal/hal_uart.o

.ivt._U3TXInterrupt
                  0x0000ba          0x2
 .ivt._U3TXInterrupt
                  0x0000ba          0x2 build/default/production/hal/hal_uart.o

.ivt._U3RXInterrupt
                  0x0000b8          0x2
 .ivt._U3RXInterrupt
                  0x0000b8          0x2 build/default/production/hal/hal_uart.o

.config_BTMODE    0x801800          0x2
 .config_BTMODE
                  0x801800          0x2 build/default/production/system.o

.config_SMB3EN    0x02af40          0x2
 .config_SMB3EN
                  0x02af40          0x2 build/default/production/system.o

.config_DMTDIS    0x02af3c          0x2
 .config_DMTDIS
                  0x02af3c          0x2 build/default/production/system.o

.config_DMTCNTH
                  0x02af38          0x2
 .config_DMTCNTH
                  0x02af38          0x2 build/default/production/system.o

.config_DMTCNTL
                  0x02af34          0x2
 .config_DMTCNTL
                  0x02af34          0x2 build/default/production/system.o

.config_DMTIVTH
                  0x02af30          0x2
 .config_DMTIVTH
                  0x02af30          0x2 build/default/production/system.o

.config_DMTIVTL
                  0x02af2c          0x2
 .config_DMTIVTL
                  0x02af2c          0x2 build/default/production/system.o

.config_BTSWP     0x02af28          0x2
 .config_BTSWP    0x02af28          0x2 build/default/production/system.o

.config_LPBOREN
                  0x02af24          0x2
 .config_LPBOREN
                  0x02af24          0x2 build/default/production/system.o

.config_WDTCLK    0x02af20          0x2
 .config_WDTCLK
                  0x02af20          0x2 build/default/production/system.o

.config_FCKSM     0x02af1c          0x2
 .config_FCKSM    0x02af1c          0x2 build/default/production/system.o

.config_IESO      0x02af18          0x2
 .config_IESO     0x02af18          0x2 build/default/production/system.o

.config_BSLIM     0x02af10          0x2
 .config_BSLIM    0x02af10          0x2 build/default/production/system.o

.const              0x93c2        0x236 load address 0x0013c2  
 .const             0x93c2        0x128 build/default/production/lib/async_uart.o
 .const             0x94ea         0x84 build/default/production/lib/ringbuffer.o
 .const             0x956e         0x36 build/default/production/lib/io.o
 .const             0x95a4         0x2e build/default/production/board.o
 .const             0x95d2         0x1a build/default/production/hal/hal_uart.o
 .const             0x95ec          0xc build/default/production/lib/wimuart.o

.text             0x0015f8        0x704
 .text            0x0015f8        0x290 build/default/production/lib/async_uart.o
                  0x0015f8                  build/default/production/lib/async_uart.o:_async_tx_sent_done
                  0x00160a                  build/default/production/lib/async_uart.o:_async_uart_error
                  0x00160c                  _async_uart_read
                  0x00165e                  _async_uart_write
                  0x0016bc                  build/default/production/lib/async_uart.o:_async_rx_filling_done
                  0x0016d4                  build/default/production/lib/async_uart.o:_async_tx_byte_sent
                  0x00171e                  _async_uart_initialization
                  0x001750                  _get_async_uart_serial_descriptor
                  0x001776                  _async_uart_set_parity
                  0x0017a0                  _async_uart_set_stop_bits
                  0x0017ca                  _async_uart_enable
                  0x0017f0                  _async_uart_set_clock_speed
                  0x00181a                  _usart_async_register_callback
                  0x001862                  _async_uart_buffer_flush
 .text            0x001888        0x210 build/default/production/lib/wimuart.o
                  0x001888                  build/default/production/lib/wimuart.o:_TxCompleteCb
                  0x0018b6                  build/default/production/lib/wimuart.o:_RxCompleteCb
                  0x0018e4                  _UARTByteAvailable
                  0x0018ec                  _UARTMasterRead
                  0x001934                  _UARTMasterWrite
                  0x00196e                  _UARTClockRateSet
                  0x001998                  _WIMSerialUARTCreate
 .text            0x001a98        0x154 build/default/production/hal/hal_uart.o
                  0x001ad4                  __async_uart_init
                  0x001b74                  __async_uart_set_parity
                  0x001b7a                  __async_uart_set_stop_bits
                  0x001b80                  __async_uart_set_clock_speed
                  0x001b86                  __async_uart_enable
                  0x001b92                  __async_uart_write_data
                  0x001b9a                  __async_uart_wait_byte_sent_status_clear
                  0x001ba4                  __async_uart_TX_interrupt_enable
                  0x001bb0                  __async_uart_TX_interrupt_disable
                  0x001bbc                  __async_uart_TX_interrupt_flag_clear
                  0x001bc8                  __async_uart_RX_interrupt_enable
                  0x001bd4                  __async_uart_RX_interrupt_disable
                  0x001be0                  __async_uart_RX_interrupt_flag_clear
 .text            0x001bec        0x110 build/default/production/lib/ringbuffer.o
                  0x001bec                  _ringbuffer_init
                  0x001c24                  _ringbuffer_get
                  0x001c5e                  _ringbuffer_put
                  0x001ca4                  _ringbuffer_num
                  0x001cca                  _ringbuffer_flush

.dinit            0x001cfc        0x100
 .dinit           0x001cfc        0x100 data_init

.text             0x001dfc        0x2bc
 .text            0x001dfc         0xde build/default/production/board.o
                  0x001dfc                  __Assert
                  0x001dfe                  _board_system_initialization
                  0x001e02                  _board_initialization
                  0x001e46                  _board_application
 .text            0x001eda         0xa4 build/default/production/lib/wimbus.o
                  0x001eda                  _WIMBusMasterWrite
                  0x001ef2                  _WIMBusMasterRead
                  0x001f0a                  _WIMBusByteAvailable
                  0x001f22                  _WIMBusClockSet
                  0x001f3e                  _WIMBusReadTimeoutSet
                  0x001f58                  _WIMBusReadTimeoutGet
                  0x001f70                  _WMBusReadTimeoutSet
                  0x001f76                  _WMBusReadTimeoutGet
 .text            0x001f7e         0xa0 build/default/production/hal/interrupts.o
                  0x001f7e                  _SetUARTRXIE
                  0x001fa6                  _SetUARTRXIF
                  0x001fce                  _SetUARTTXIE
                  0x001ff6                  _SetUARTTXIF
 .text            0x00201e         0x68 build/default/production/lib/io.o
                  0x00201e                  _io_write
                  0x002052                  _io_read
 .text            0x002086         0x32 build/default/production/system.o
                  0x002086                  _WMB_ClockInitialization

.init.delay32     0x0020b8         0x1c
 .init.delay32    0x0020b8         0x1c c:/program files/microchip/xc16/v1.61/bin/bin/../../lib\liblega-pic30-elf.a(delay32da.Leo)
                  0x0020b8                  ___delay32

.text             0x0020d4         0x18
 .text            0x0020d4          0xe build/default/production/lib/driver_init.o
                  0x0020d4                  _UART1_Initialization
 .text            0x0020e2          0xa build/default/production/main.o
                  0x0020e2                  _main
